A51 MACRO ASSEMBLER  PROJETO00_PADRAO                                                     05/09/2017 16:41:09 PAGE     1


MACRO ASSEMBLER A51 V8.2.5.0
OBJECT MODULE PLACED IN .\Objects\projeto00_padrao.obj
ASSEMBLER INVOKED BY: C:\Keil_v5\C51\BIN\A51.EXE projeto00_padrao.a51 SET(SMALL) DEBUG PRINT(.\Listings\projeto00_padrao
                      .lst) OBJECT(.\Objects\projeto00_padrao.obj) EP

LOC  OBJ            LINE     SOURCE

                       1     

                       2     

                       3     

                       4     

                       5     

                       6     

                       7     

                       8     

                       9     

                      10     $nomod51 

                      11     ;#include <at89c5131.h>

                +1    12     

                +1    13     

                +1    14     

                +1    15     

                +1    16     

                +1    17     

                +1    18     

                +1    19     

                +1    20     

                +1    21     

                +1    22     

                +1    23     

                +1    24     

                +1    25     

                +1    26     

                +1    27     

                +1    28     

                +1    29     

                +1    30     

                +1    31     

                +1    32     

                +1    33     

                +1    34     

                +1    35     

                +1    36     

                +1    37     

                +1    38     

                +1    39     

                +1    40     

  00E0          +1    41     sfr ACC = 0xE0 ;        /* Sfr ( ACC, bit addressable)*/

  00F0          +1    42     sfr B = 0xF0 ;        /* Sfr ( B,   bit addressable)*/

  00D0          +1    43     sfr PSW = 0xD0 ;        /* Sfr ( PSW, bit addressable)*/

  0081          +1    44     sfr SP = 0x81 ;

  0082          +1    45     sfr DPL = 0x82 ;

  0083          +1    46     sfr DPH = 0x83 ;

                +1    47     

                +1    48     

                +1    49     

                +1    50     

                +1    51     

                +1    52     

  0080          +1    53     sfr P0 = 0x80 ;        /* Sfr ( P0, bit addressable)*/

                +1    54     

  0087          +1    55     sbit P0_7 = P0 ^ 7 ;

  0086          +1    56     sbit P0_6 = P0 ^ 6 ;

  0085          +1    57     sbit P0_5 = P0 ^ 5 ;

A51 MACRO ASSEMBLER  PROJETO00_PADRAO                                                     05/09/2017 16:41:09 PAGE     2

  0084          +1    58     sbit P0_4 = P0 ^ 4 ;

  0083          +1    59     sbit P0_3 = P0 ^ 3 ;

  0082          +1    60     sbit P0_2 = P0 ^ 2 ;

  0081          +1    61     sbit P0_1 = P0 ^ 1 ;

  0080          +1    62     sbit P0_0 = P0 ^ 0 ;

                +1    63     

  0090          +1    64     sfr P1 = 0x90 ;        /* Sfr ( P1, bit addressable)*/

                +1    65     

  0097          +1    66     sbit P1_7 = P1 ^ 7 ;

  0096          +1    67     sbit P1_6 = P1 ^ 6 ;

  0095          +1    68     sbit P1_5 = P1 ^ 5 ;

  0094          +1    69     sbit P1_4 = P1 ^ 4 ;

  0093          +1    70     sbit P1_3 = P1 ^ 3 ;

  0092          +1    71     sbit P1_2 = P1 ^ 2 ;

  0091          +1    72     sbit P1_1 = P1 ^ 1 ;

  0090          +1    73     sbit P1_0 = P1 ^ 0 ;

                +1    74     

  00A0          +1    75     sfr P2 = 0xA0 ;        /* Sfr ( P2, bit addressable)*/

                +1    76     

  00A7          +1    77     sbit P2_7 = P2 ^ 7 ;

  00A6          +1    78     sbit P2_6 = P2 ^ 6 ;

  00A5          +1    79     sbit P2_5 = P2 ^ 5 ;

  00A4          +1    80     sbit P2_4 = P2 ^ 4 ;

  00A3          +1    81     sbit P2_3 = P2 ^ 3 ;

  00A2          +1    82     sbit P2_2 = P2 ^ 2 ;

  00A1          +1    83     sbit P2_1 = P2 ^ 1 ;

  00A0          +1    84     sbit P2_0 = P2 ^ 0 ;

                +1    85     

  00B0          +1    86     sfr P3 = 0xB0 ;        /* Sfr ( P3, bit addressable)*/

                +1    87     

  00B7          +1    88     sbit P3_7 = P3 ^ 7 ;

  00B6          +1    89     sbit P3_6 = P3 ^ 6 ;

  00B5          +1    90     sbit P3_5 = P3 ^ 5 ;

  00B4          +1    91     sbit P3_4 = P3 ^ 4 ;

  00B3          +1    92     sbit P3_3 = P3 ^ 3 ;

  00B2          +1    93     sbit P3_2 = P3 ^ 2 ;

  00B1          +1    94     sbit P3_1 = P3 ^ 1 ;

  00B0          +1    95     sbit P3_0 = P3 ^ 0 ;

                +1    96     

  00C0          +1    97     sfr P4 = 0xC0 ;        /* Sfr ( P4, bit addressable)*/

                +1    98     

  00C1          +1    99     sbit P4_1 = P4 ^ 1 ;

  00C0          +1   100     sbit P4_0 = P4 ^ 0 ;

                +1   101     

                +1   102     

                +1   103     

                +1   104     

  008C          +1   105     sfr TH0 = 0x8C ; 

  008A          +1   106     sfr TL0 = 0x8A ;

  008D          +1   107     sfr TH1 = 0x8D ;

  008B          +1   108     sfr TL1 = 0x8B ;

  00CD          +1   109     sfr TH2 = 0xCD ;

  00CC          +1   110     sfr TL2 = 0xCC ;

  0088          +1   111     sfr TCON = 0x88 ;        /* Sfr ( TCON,  bit addressable)*/

  0089          +1   112     sfr TMOD = 0x89 ;

  00C8          +1   113     sfr T2CON = 0xC8 ;        /* Sfr ( T2CON, bit addressable)*/

  00C9          +1   114     sfr T2MOD = 0xC9 ;

  00CB          +1   115     sfr RCAP2H = 0xCB ;

  00CA          +1   116     sfr RCAP2L = 0xCA ;

  00A6          +1   117     sfr WDTRST = 0xA6 ;

  00A7          +1   118     sfr WDTPRG = 0xA7 ;

                +1   119     

                +1   120                                 

  008F          +1   121     sbit TF1 = TCON ^ 7 ;

  008E          +1   122     sbit TR1 = TCON ^ 6 ;

  008D          +1   123     sbit TF0 = TCON ^ 5 ;

A51 MACRO ASSEMBLER  PROJETO00_PADRAO                                                     05/09/2017 16:41:09 PAGE     3

  008C          +1   124     sbit TR0 = TCON ^ 4 ;

  008B          +1   125     sbit IE1_ = TCON ^ 3 ;

  008A          +1   126     sbit IT1 = TCON ^ 2 ;

  0089          +1   127     sbit IE0_ = TCON ^ 1 ;

  0088          +1   128     sbit IT0 = TCON ^ 0 ;

                +1   129                                 

  00CF          +1   130     sbit TF2 = T2CON ^ 7 ;

  00CE          +1   131     sbit EXF2 = T2CON ^ 6 ;

  00CD          +1   132     sbit RCLK = T2CON ^ 5 ;

  00CC          +1   133     sbit TCLK = T2CON ^ 4 ;

  00CB          +1   134     sbit EXEN2 = T2CON ^ 3 ;

  00CA          +1   135     sbit TR2 = T2CON ^ 2 ;

  00C9          +1   136     sbit C_T2 = T2CON ^ 1 ;

  00C8          +1   137     sbit CP_RL2 = T2CON ^ 0 ;

                +1   138     

                +1   139     

                +1   140     

                +1   141     

  0098          +1   142     sfr SCON = 0x98 ;

  0099          +1   143     sfr SBUF = 0x99 ;

  00B9          +1   144     sfr SADEN = 0xB9 ;

  00A9          +1   145     sfr SADDR = 0xA9 ;

                +1   146     

  009F          +1   147     sbit FE_SM0 = SCON ^ 7 ;

  009E          +1   148     sbit SM1 = SCON ^ 6 ;

  009D          +1   149     sbit SM2 = SCON ^ 5 ;

  009C          +1   150     sbit REN = SCON ^ 4 ;

  009B          +1   151     sbit TB8 = SCON ^ 3 ;

  009A          +1   152     sbit RB8 = SCON ^ 2 ;

  0099          +1   153     sbit TI = SCON ^ 1 ;

  0098          +1   154     sbit RI = SCON ^ 0 ;

                +1   155     

                +1   156     

                +1   157     

  009A          +1   158     sfr BRL = 0x9A ;

  009B          +1   159     sfr BDRCON = 0x9B ;

                +1   160     

                +1   161     

                +1   162     

  00D8          +1   163     sfr CCON = 0xD8 ;      /* Sfr ( CCON, bit addressable)*/

  00D9          +1   164     sfr CMOD = 0xD9 ;

  00E9          +1   165     sfr CL = 0xE9 ;

  00F9          +1   166     sfr CH = 0xF9 ;

  00DA          +1   167     sfr CCAPM0 = 0xDA ;

  00DB          +1   168     sfr CCAPM1 = 0xDB ;

  00DC          +1   169     sfr CCAPM2 = 0xDC ;

  00DD          +1   170     sfr CCAPM3 = 0xDD ;

  00DE          +1   171     sfr CCAPM4 = 0xDE ;

  00FA          +1   172     sfr CCAP0H = 0xFA ;

  00FB          +1   173     sfr CCAP1H = 0xFB ;

  00FC          +1   174     sfr CCAP2H = 0xFC ;

  00FD          +1   175     sfr CCAP3H = 0xFD ;

  00FE          +1   176     sfr CCAP4H = 0xFE ;

  00EA          +1   177     sfr CCAP0L = 0xEA ;

  00EB          +1   178     sfr CCAP1L = 0xEB ;

  00EC          +1   179     sfr CCAP2L = 0xEC ;

  00ED          +1   180     sfr CCAP3L = 0xED ;

  00EE          +1   181     sfr CCAP4L = 0xEE ;

                +1   182     

                +1   183                                  

  00DF          +1   184     sbit CF = CCON ^ 7 ;

  00DE          +1   185     sbit CR = CCON ^ 6 ;

  00DC          +1   186     sbit CCF4 = CCON ^ 4 ;

  00DB          +1   187     sbit CCF3 = CCON ^ 3 ;

  00DA          +1   188     sbit CCF2 = CCON ^ 2 ;

  00D9          +1   189     sbit CCF1 = CCON ^ 1 ;

A51 MACRO ASSEMBLER  PROJETO00_PADRAO                                                     05/09/2017 16:41:09 PAGE     4

  00D8          +1   190     sbit CCF0 = CCON ^ 0 ;

                +1   191     

                +1   192     

                +1   193     

                +1   194     

  00A8          +1   195     sfr IEN0 = 0xA8 ;       /* Sfr ( IEN0,  bit addressable                 */

  00B1          +1   196     sfr IEN1 = 0xB1 ;

  00B8          +1   197     sfr IPL0 = 0xB8 ;       /* Sfr ( IPL0, bit addressable          */

  00B7          +1   198     sfr IPH0 = 0xB7 ;

  00B2          +1   199     sfr IPL1 = 0xB2 ;

  00B3          +1   200     sfr IPH1 = 0xB3 ;

                +1   201     

                +1   202                                  

  00AF          +1   203     sbit EA = IEN0 ^ 7 ;

  00AE          +1   204     sbit EC = IEN0 ^ 6 ;

  00AD          +1   205     sbit ET2 = IEN0 ^ 5 ;

  00AC          +1   206     sbit ES = IEN0 ^ 4 ;

  00AB          +1   207     sbit ET1 = IEN0 ^ 3 ;

  00AA          +1   208     sbit EX1 = IEN0 ^ 2 ;

  00A9          +1   209     sbit ET0 = IEN0 ^ 1 ;

  00A8          +1   210     sbit EX0 = IEN0 ^ 0 ;

                +1   211                                  

  00BE          +1   212     sbit PPCL = IPL0 ^ 6 ;

  00BD          +1   213     sbit PT2L = IPL0 ^ 5 ;

  00BC          +1   214     sbit PSL = IPL0 ^ 4 ;

  00BB          +1   215     sbit PTIL = IPL0 ^ 3 ;

  00BA          +1   216     sbit PXIL = IPL0 ^ 2 ;

  00B9          +1   217     sbit PT0L = IPL0 ^ 1 ;

  00B8          +1   218     sbit PX0L = IPL0 ^ 0 ;

                +1   219     

                +1   220     

                +1   221     

  00A3          +1   222     sfr PLLCON = 0xA3 ;

  00A4          +1   223     sfr PLLDIV = 0xA4 ;

                +1   224     

                +1   225     

                +1   226     

  009E          +1   227     sfr KBF = 0x9E ;

  009D          +1   228     sfr KBE = 0x9D ;

  009C          +1   229     sfr KBLS = 0x9C ;

                +1   230     

                +1   231     

                +1   232     

  0093          +1   233     sfr SSCON = 0x93 ;

  0094          +1   234     sfr SSCS = 0x94 ;

  0095          +1   235     sfr SSDAT = 0x95 ;

  0096          +1   236     sfr SSADR = 0x96 ;

                +1   237     

                +1   238     

                +1   239     

  00C3          +1   240     sfr SPCON = 0xC3 ;

  00C4          +1   241     sfr SPSTA = 0xC4 ;

  00C5          +1   242     sfr SPDAT = 0xC5 ;

                +1   243     

                +1   244     

                +1   245     

  00BC          +1   246     sfr USBCON = 0xBC ;

  00C6          +1   247     sfr USBADDR = 0xC6 ;

  00BD          +1   248     sfr USBINT = 0xBD ;

  00BE          +1   249     sfr USBIEN = 0xBE ;

  00C7          +1   250     sfr UEPNUM = 0xC7 ;

  00D4          +1   251     sfr UEPCONX = 0xD4 ;

  00CE          +1   252     sfr UEPSTAX = 0xCE ;

  00D5          +1   253     sfr UEPRST = 0xD5 ;

  00F8          +1   254     sfr UEPINT = 0xF8 ;         /* Sfr ( UEPINT, bit addressable) */

  00C2          +1   255     sfr UEPIEN = 0xC2 ;

A51 MACRO ASSEMBLER  PROJETO00_PADRAO                                                     05/09/2017 16:41:09 PAGE     5

  00CF          +1   256     sfr UEPDATX = 0xCF ;

  00E2          +1   257     sfr UBYCTLX = 0xE2 ;

  00E3          +1   258     sfr UBYCTHX = 0xE3 ;

  00D6          +1   259     sfr UDPADDL = 0xD6 ;

  00D7          +1   260     sfr UDPADDH = 0xD7 ;

  00BA          +1   261     sfr UFNUML = 0xBA ;

  00BB          +1   262     sfr UFNUMH = 0xBB ;

                +1   263                                     

  00FE          +1   264     sbit EP6INT = UEPINT ^ 6 ;

  00FD          +1   265     sbit EP5INT = UEPINT ^ 5 ;

  00FC          +1   266     sbit EP4INT = UEPINT ^ 4 ;

  00FB          +1   267     sbit EP3INT = UEPINT ^ 3 ;

  00FA          +1   268     sbit EP2INT = UEPINT ^ 2 ;

  00F9          +1   269     sbit EP1INT = UEPINT ^ 1 ;

  00F8          +1   270     sbit EP0INT = UEPINT ^ 0 ;

                +1   271     

                +1   272     

                +1   273     

  0087          +1   274     sfr PCON = 0x87 ;

  008E          +1   275     sfr AUXR = 0x8E ;

  00A2          +1   276     sfr AUXR1 = 0xA2 ;

  008F          +1   277     sfr CKCON0 = 0x8F ;

  00AF          +1   278     sfr CKCON1 = 0xAF ;

  0085          +1   279     sfr CKSEL = 0x85 ;

  00F1          +1   280     sfr LEDCON = 0xF1 ;

  00D1          +1   281     sfr FCON = 0xD1 ;

  00D2          +1   282     sfr EECON = 0xD2 ;

                +1   283     

                +1   284     

                +1   285     

                +1   286     

                     287     

                     288     ;#include "lcd16x2.a51"

                +1   289     

                +1   290     

                +1   291     

                +1   292     

                +1   293     

                +1   294     

                +1   295     

                +1   296     

                +1   297     

                +1   298     

                +1   299     

                +1   300     

                +1   301     

                +1   302     

                +1   303     

                +1   304     

                +1   305     

                +1   306     

                +1   307     

  0080          +1   308     DISPLAY EQU P0

  0087          +1   309     BUSYF   EQU     P0.7                     

                +1   310     

  00A5          +1   311     RS              EQU     P2.5                     

  00A7          +1   312     E_LCD   EQU     P2.7                     

  00A6          +1   313     RW              EQU     P2.6                     

                +1   314     

                +1   315     

                +1   316     

                +1   317     

                +1   318     

                +1   319     

                +1   320     

                +1   321     

A51 MACRO ASSEMBLER  PROJETO00_PADRAO                                                     05/09/2017 16:41:09 PAGE     6

                +1   322     

                +1   323     

0000            +1   324     INIDISP:

0000 7838       +1   325             MOV     R0,#38H          

0002 7A05       +1   326             MOV     R2,#05           

0004 111F       +1   327             CALL    ESCINST          

                +1   328             

0006 7838       +1   329                     MOV     R0,#38H          

0008 7A01       +1   330             MOV     R2,#01           

000A 111F       +1   331             CALL    ESCINST          

                +1   332             

000C 7806       +1   333                     MOV     R0,#06H          

000E 7A01       +1   334             MOV     R2,#01           

0010 111F       +1   335             CALL    ESCINST          

                +1   336             

0012 780C       +1   337                     MOV     R0,#0CH          

0014 7A01       +1   338             MOV     R2,#01           

0016 111F       +1   339             CALL    ESCINST          

                +1   340             

0018 7801       +1   341                     MOV     R0,#01H          

001A 7A02       +1   342             MOV     R2,#02           

001C 111F       +1   343             CALL    ESCINST          

                +1   344             

001E 22         +1   345                     RET

                +1   346                     

                +1   347     

                +1   348     

                +1   349     

                +1   350     

                +1   351     

                +1   352     

                +1   353     

                +1   354     

                +1   355     

001F            +1   356     ESCINST:  

001F C2A6       +1   357                     CLR             RW                               

0021 C2A5       +1   358                     CLR     RS               

0023 D2A7       +1   359                     SETB    E_LCD            

                +1   360                     

0025 8880       +1   361                     MOV     DISPLAY, R0      

                +1   362                     

0027 C2A7       +1   363                     CLR     E_LCD            

                +1   364                     

0029 7580FF     +1   365                     MOV             DISPLAY,#0xFF    

                +1   366                     

002C D2A6       +1   367                     SETB    RW                               

002E D2A7       +1   368                     SETB    E_LCD            

                +1   369     

0030 2087FD     +1   370                     JB              BUSYF, $                 

                +1   371                     

0033 C2A7       +1   372                     CLR     E_LCD            

                +1   373             

0035 22         +1   374                     RET

                +1   375                     

                +1   376     

                +1   377     

                +1   378     

                +1   379     

                +1   380     

                +1   381     

                +1   382     

                +1   383     

0036            +1   384     GOTOXY: 

0036 C0E0       +1   385                     PUSH    ACC

                +1   386             

0038 7480       +1   387                     MOV     A,#80H

A51 MACRO ASSEMBLER  PROJETO00_PADRAO                                                     05/09/2017 16:41:09 PAGE     7

003A B80102     +1   388             CJNE    R0,#01,GT1       

                +1   389             

003D 74C0       +1   390                     MOV     A,#0C0H

                +1   391                     

003F 49         +1   392     GT1:    ORL     A,R1             

0040 F8         +1   393             MOV     R0,A

0041 7A01       +1   394             MOV     R2,#01           

                +1   395             

0043 111F       +1   396                     CALL    ESCINST          

                +1   397             

0045 D0E0       +1   398                     POP     ACC

                +1   399             

0047 22         +1   400                     RET

                +1   401             

                +1   402     

                +1   403     

                +1   404     

                +1   405     

                +1   406     

                +1   407     

                +1   408     

                +1   409     

0048            +1   410     CLR1L:    

0048 C0E0       +1   411             PUSH   ACC

                +1   412             

004A 7800       +1   413                     MOV    R0,#00               

004C 7900       +1   414             MOV    R1,#00

                +1   415             

004E 1136       +1   416                     CALL   GOTOXY

                +1   417             

0050 7910       +1   418                     MOV    R1,#16               

                +1   419     

0052 7420       +1   420     CLR1L1: MOV    A,#' '               

                +1   421             

0054 117A       +1   422                     CALL   ESCDADO

                +1   423             

0056 D9FA       +1   424                     DJNZ   R1,CLR1L1

0058 7800       +1   425             MOV    R0,#00               

005A 7900       +1   426             MOV    R1,#00

                +1   427             

005C 1136       +1   428                     CALL   GOTOXY

                +1   429             

005E D0E0       +1   430                     POP    ACC

                +1   431             

0060 22         +1   432                     RET

                +1   433                     

                +1   434     

                +1   435     

                +1   436     

                +1   437     

                +1   438     

                +1   439     

                +1   440     

                +1   441     

0061            +1   442     CLR2L:    

0061 C0E0       +1   443             PUSH   ACC

                +1   444             

0063 7801       +1   445                     MOV    R0,#01               

0065 7900       +1   446             MOV    R1,#00

                +1   447             

0067 1136       +1   448                     CALL   GOTOXY

                +1   449             

0069 7910       +1   450                     MOV    R1,#16               

                +1   451     

006B 7420       +1   452     CLR2L1: MOV    A,#' '               

                +1   453             

A51 MACRO ASSEMBLER  PROJETO00_PADRAO                                                     05/09/2017 16:41:09 PAGE     8

006D 117A       +1   454                     CALL   ESCDADO

                +1   455             

006F D9FA       +1   456                     DJNZ   R1,CLR2L1

0071 7801       +1   457             MOV    R0,#01               

0073 7900       +1   458             MOV    R1,#00

                +1   459             

0075 1136       +1   460                     CALL   GOTOXY

                +1   461             

0077 D0E0       +1   462                     POP    ACC

                +1   463             

0079 22         +1   464                     RET

                +1   465                

                +1   466     

                +1   467     

                +1   468     

                +1   469     

                +1   470     

                +1   471     

                +1   472     

007A            +1   473     ESCDADO:  

007A C2A6       +1   474                     CLR             RW                               

007C D2A5       +1   475             SETB    RS               

007E D2A7       +1   476             SETB    E_LCD            

                +1   477                     

0080 F580       +1   478             MOV     DISPLAY,A        

                +1   479             

0082 C2A7       +1   480                     CLR     E_LCD            

                +1   481                     

0084 7580FF     +1   482                     MOV             DISPLAY,#0xFF    

                +1   483                     

0087 D2A6       +1   484                     SETB    RW                               

0089 C2A5       +1   485                     CLR             RS                               

008B D2A7       +1   486                     SETB    E_LCD            

                +1   487     

008D 2087FD     +1   488                     JB              BUSYF,$                  

                +1   489     

0090 C2A7       +1   490                     CLR     E_LCD            

                +1   491     

0092 22         +1   492             RET

                +1   493                     

                +1   494     

                +1   495     

                +1   496     

                +1   497     

                +1   498     

                +1   499     

                +1   500     

                +1   501     

                +1   502     

0093            +1   503     MSTRING:  

0093 E4         +1   504                       CLR    A

0094 93         +1   505               MOVC   A,@A+DPTR       

                +1   506               

0095 6006       +1   507                       JZ     MSTR1

                +1   508               

0097 12007A     +1   509                       LCALL  ESCDADO         

                +1   510               

009A A3         +1   511                       INC    DPTR

                +1   512               

009B 80F6       +1   513                       SJMP   MSTRING

                +1   514                       

009D 22         +1   515     MSTR1:    RET

                +1   516                

                +1   517     

                +1   518     

                +1   519     

A51 MACRO ASSEMBLER  PROJETO00_PADRAO                                                     05/09/2017 16:41:09 PAGE     9

                +1   520     

                +1   521     

                +1   522     

                +1   523     

                +1   524     

                +1   525     

009E            +1   526     MSTRINGX: 

009E E0         +1   527                       MOVX   A,@DPTR         

                +1   528               

009F 6006       +1   529                       JZ     MSTR21

                +1   530               

00A1 12007A     +1   531                       LCALL  ESCDADO         

                +1   532               

00A4 A3         +1   533                       INC    DPTR

                +1   534               

00A5 80F7       +1   535                       SJMP   MSTRINGX

                +1   536     

00A7 22         +1   537     MSTR21:   RET

                +1   538     

                +1   539     

                +1   540     

                +1   541     

                +1   542     

                +1   543     

                +1   544     

                +1   545     

                +1   546     

                +1   547     

00A8            +1   548     ESC_STR1: 

                +1   549                       

00A8 7800       +1   550                       MOV    R0,#00         

00AA 7900       +1   551               MOV    R1,#00

                +1   552               

00AC 8004       +1   553                       JMP    ESC_S

                +1   554               

                +1   555     

                +1   556     

                +1   557     

                +1   558     

                +1   559     

                +1   560     

                +1   561     

                +1   562     

                +1   563     

00AE            +1   564     ESC_STR2: 

                +1   565                       

00AE 7801       +1   566                       MOV    R0,#01         

00B0 7900       +1   567               MOV    R1,#00

                +1   568                       

00B2 120036     +1   569     ESC_S:    LCALL  GOTOXY          

                +1   570               

00B5 120093     +1   571                       LCALL  MSTRING

                +1   572               

00B8 22         +1   573                       RET

                +1   574     

                +1   575     

                +1   576     

                +1   577     

                +1   578     

                +1   579     

                +1   580     

                +1   581     ; DESTROI: R0,R2                                                                        //

                +1   582     

00B9            +1   583     CUR_ON:   

00B9 780F       +1   584                       MOV    R0,#0FH               

00BB 8002       +1   585               SJMP   CUR1

A51 MACRO ASSEMBLER  PROJETO00_PADRAO                                                     05/09/2017 16:41:09 PAGE    10

                +1   586                       

00BD            +1   587     CUR_OFF:  

00BD 780C       +1   588                       MOV    R0,#0CH               

                +1   589                       

00BF 7A01       +1   590     CUR1:     MOV    R2,#01

                +1   591               

00C1 111F       +1   592                       CALL   ESCINST               

                +1   593               

00C3 22         +1   594                       RET

                +1   595                       

                +1   596     

                +1   597     

                +1   598     

                +1   599     

                +1   600     

                +1   601     

                +1   602     

00C4            +1   603     ESCREVE_ASTERISCO:              

00C4 742A       +1   604                     MOV     A, #2Ah  

00C6 117A       +1   605                     CALL    ESCDADO

                +1   606             

00C8 22         +1   607                     RET

                     608     

                     609     

                     610     

                     611     

                     612     

                     613     

                     614     

                     615     

                     616     

                     617     

                     618     

0000                 619     ORG 0000h  

0000 020046          620                     LJMP __STARTUP__

                     621     

0003                 622     ORG 0003h  

0003 02004B          623                     LJMP INT_INT0

                     624     

000B                 625     ORG 000Bh  

000B 02004C          626                     LJMP INT_TIMER0

                     627     

0013                 628     ORG 0013h  

0013 02004D          629                     LJMP INT_INT1

                     630     

001B                 631     ORG 001Bh  

001B 02004E          632                     LJMP INT_TIMER1

                     633     

0023                 634     ORG 0023h  

0023 02004F          635                     LJMP INT_SERIAL

                     636     

0043                 637     ORG     0043h

0043 020050          638                     LJMP INT_I2C_TWI

                     639             

0046                 640     __STARTUP__:

0046 120000          641                     LCALL   INIDISP

                     642     

0049 80FB            643                     JMP     __STARTUP__

                     644     

                     645     

                     646     

                     647     

                     648     

                     649     

                     650     

                     651     

A51 MACRO ASSEMBLER  PROJETO00_PADRAO                                                     05/09/2017 16:41:09 PAGE    11

                     652     

                     653     

                     654     

                     655     

004B                 656     INT_INT0:

004B 32              657                     RETI

                     658     

                     659     

                     660     

                     661     

                     662     

                     663     

                     664     

                     665     

004C                 666     INT_TIMER0:

004C 32              667                     RETI

                     668             

                     669     

                     670     

                     671     

                     672     

                     673     

                     674     

                     675     

004D                 676     INT_INT1:

004D 32              677                     RETI

                     678     

                     679     

                     680     

                     681     

                     682     

                     683     

                     684     

                     685     

004E                 686     INT_TIMER1:

004E 32              687                     RETI

                     688             

                     689     

                     690     

                     691     

                     692     

                     693     

                     694     

                     695     

004F                 696     INT_SERIAL:

004F 32              697                     RETI

                     698             

                     699     

                     700     

                     701     

                     702     

                     703     

                     704     

                     705     

0050                 706     INT_I2C_TWI:

0050 32              707                     RETI

                     708     

                     709                     END

A51 MACRO ASSEMBLER  PROJETO00_PADRAO                                                     05/09/2017 16:41:09 PAGE    12

SYMBOL TABLE LISTING
------ ----- -------


N A M E             T Y P E  V A L U E   ATTRIBUTES

ACC. . . . . . . .  D ADDR   00E0H   A   
AUXR . . . . . . .  D ADDR   008EH   A   
AUXR1. . . . . . .  D ADDR   00A2H   A   
B. . . . . . . . .  D ADDR   00F0H   A   
BDRCON . . . . . .  D ADDR   009BH   A   
BRL. . . . . . . .  D ADDR   009AH   A   
BUSYF. . . . . . .  B ADDR   0080H.7 A   
CCAP0H . . . . . .  D ADDR   00FAH   A   
CCAP0L . . . . . .  D ADDR   00EAH   A   
CCAP1H . . . . . .  D ADDR   00FBH   A   
CCAP1L . . . . . .  D ADDR   00EBH   A   
CCAP2H . . . . . .  D ADDR   00FCH   A   
CCAP2L . . . . . .  D ADDR   00ECH   A   
CCAP3H . . . . . .  D ADDR   00FDH   A   
CCAP3L . . . . . .  D ADDR   00EDH   A   
CCAP4H . . . . . .  D ADDR   00FEH   A   
CCAP4L . . . . . .  D ADDR   00EEH   A   
CCAPM0 . . . . . .  D ADDR   00DAH   A   
CCAPM1 . . . . . .  D ADDR   00DBH   A   
CCAPM2 . . . . . .  D ADDR   00DCH   A   
CCAPM3 . . . . . .  D ADDR   00DDH   A   
CCAPM4 . . . . . .  D ADDR   00DEH   A   
CCF0 . . . . . . .  B ADDR   00D8H.0 A   
CCF1 . . . . . . .  B ADDR   00D8H.1 A   
CCF2 . . . . . . .  B ADDR   00D8H.2 A   
CCF3 . . . . . . .  B ADDR   00D8H.3 A   
CCF4 . . . . . . .  B ADDR   00D8H.4 A   
CCON . . . . . . .  D ADDR   00D8H   A   
CF . . . . . . . .  B ADDR   00D8H.7 A   
CH . . . . . . . .  D ADDR   00F9H   A   
CKCON0 . . . . . .  D ADDR   008FH   A   
CKCON1 . . . . . .  D ADDR   00AFH   A   
CKSEL. . . . . . .  D ADDR   0085H   A   
CL . . . . . . . .  D ADDR   00E9H   A   
CLR1L. . . . . . .  C ADDR   0048H   A   
CLR1L1 . . . . . .  C ADDR   0052H   A   
CLR2L. . . . . . .  C ADDR   0061H   A   
CLR2L1 . . . . . .  C ADDR   006BH   A   
CMOD . . . . . . .  D ADDR   00D9H   A   
CP_RL2 . . . . . .  B ADDR   00C8H.0 A   
CR . . . . . . . .  B ADDR   00D8H.6 A   
CUR1 . . . . . . .  C ADDR   00BFH   A   
CUR_OFF. . . . . .  C ADDR   00BDH   A   
CUR_ON . . . . . .  C ADDR   00B9H   A   
C_T2 . . . . . . .  B ADDR   00C8H.1 A   
DISPLAY. . . . . .  D ADDR   0080H   A   
DPH. . . . . . . .  D ADDR   0083H   A   
DPL. . . . . . . .  D ADDR   0082H   A   
EA . . . . . . . .  B ADDR   00A8H.7 A   
EC . . . . . . . .  B ADDR   00A8H.6 A   
EECON. . . . . . .  D ADDR   00D2H   A   
EP0INT . . . . . .  B ADDR   00F8H.0 A   
EP1INT . . . . . .  B ADDR   00F8H.1 A   
EP2INT . . . . . .  B ADDR   00F8H.2 A   
EP3INT . . . . . .  B ADDR   00F8H.3 A   
EP4INT . . . . . .  B ADDR   00F8H.4 A   
EP5INT . . . . . .  B ADDR   00F8H.5 A   
EP6INT . . . . . .  B ADDR   00F8H.6 A   
ES . . . . . . . .  B ADDR   00A8H.4 A   
ESCDADO. . . . . .  C ADDR   007AH   A   
A51 MACRO ASSEMBLER  PROJETO00_PADRAO                                                     05/09/2017 16:41:09 PAGE    13

ESCINST. . . . . .  C ADDR   001FH   A   
ESCREVE_ASTERISCO.  C ADDR   00C4H   A   
ESC_S. . . . . . .  C ADDR   00B2H   A   
ESC_STR1 . . . . .  C ADDR   00A8H   A   
ESC_STR2 . . . . .  C ADDR   00AEH   A   
ET0. . . . . . . .  B ADDR   00A8H.1 A   
ET1. . . . . . . .  B ADDR   00A8H.3 A   
ET2. . . . . . . .  B ADDR   00A8H.5 A   
EX0. . . . . . . .  B ADDR   00A8H.0 A   
EX1. . . . . . . .  B ADDR   00A8H.2 A   
EXEN2. . . . . . .  B ADDR   00C8H.3 A   
EXF2 . . . . . . .  B ADDR   00C8H.6 A   
E_LCD. . . . . . .  B ADDR   00A0H.7 A   
FCON . . . . . . .  D ADDR   00D1H   A   
FE_SM0 . . . . . .  B ADDR   0098H.7 A   
GOTOXY . . . . . .  C ADDR   0036H   A   
GT1. . . . . . . .  C ADDR   003FH   A   
IE0_ . . . . . . .  B ADDR   0088H.1 A   
IE1_ . . . . . . .  B ADDR   0088H.3 A   
IEN0 . . . . . . .  D ADDR   00A8H   A   
IEN1 . . . . . . .  D ADDR   00B1H   A   
INIDISP. . . . . .  C ADDR   0000H   A   
INT_I2C_TWI. . . .  C ADDR   0050H   A   
INT_INT0 . . . . .  C ADDR   004BH   A   
INT_INT1 . . . . .  C ADDR   004DH   A   
INT_SERIAL . . . .  C ADDR   004FH   A   
INT_TIMER0 . . . .  C ADDR   004CH   A   
INT_TIMER1 . . . .  C ADDR   004EH   A   
IPH0 . . . . . . .  D ADDR   00B7H   A   
IPH1 . . . . . . .  D ADDR   00B3H   A   
IPL0 . . . . . . .  D ADDR   00B8H   A   
IPL1 . . . . . . .  D ADDR   00B2H   A   
IT0. . . . . . . .  B ADDR   0088H.0 A   
IT1. . . . . . . .  B ADDR   0088H.2 A   
KBE. . . . . . . .  D ADDR   009DH   A   
KBF. . . . . . . .  D ADDR   009EH   A   
KBLS . . . . . . .  D ADDR   009CH   A   
LEDCON . . . . . .  D ADDR   00F1H   A   
MSTR1. . . . . . .  C ADDR   009DH   A   
MSTR21 . . . . . .  C ADDR   00A7H   A   
MSTRING. . . . . .  C ADDR   0093H   A   
MSTRINGX . . . . .  C ADDR   009EH   A   
P0 . . . . . . . .  D ADDR   0080H   A   
P0_0 . . . . . . .  B ADDR   0080H.0 A   
P0_1 . . . . . . .  B ADDR   0080H.1 A   
P0_2 . . . . . . .  B ADDR   0080H.2 A   
P0_3 . . . . . . .  B ADDR   0080H.3 A   
P0_4 . . . . . . .  B ADDR   0080H.4 A   
P0_5 . . . . . . .  B ADDR   0080H.5 A   
P0_6 . . . . . . .  B ADDR   0080H.6 A   
P0_7 . . . . . . .  B ADDR   0080H.7 A   
P1 . . . . . . . .  D ADDR   0090H   A   
P1_0 . . . . . . .  B ADDR   0090H.0 A   
P1_1 . . . . . . .  B ADDR   0090H.1 A   
P1_2 . . . . . . .  B ADDR   0090H.2 A   
P1_3 . . . . . . .  B ADDR   0090H.3 A   
P1_4 . . . . . . .  B ADDR   0090H.4 A   
P1_5 . . . . . . .  B ADDR   0090H.5 A   
P1_6 . . . . . . .  B ADDR   0090H.6 A   
P1_7 . . . . . . .  B ADDR   0090H.7 A   
P2 . . . . . . . .  D ADDR   00A0H   A   
P2_0 . . . . . . .  B ADDR   00A0H.0 A   
P2_1 . . . . . . .  B ADDR   00A0H.1 A   
P2_2 . . . . . . .  B ADDR   00A0H.2 A   
P2_3 . . . . . . .  B ADDR   00A0H.3 A   
P2_4 . . . . . . .  B ADDR   00A0H.4 A   
A51 MACRO ASSEMBLER  PROJETO00_PADRAO                                                     05/09/2017 16:41:09 PAGE    14

P2_5 . . . . . . .  B ADDR   00A0H.5 A   
P2_6 . . . . . . .  B ADDR   00A0H.6 A   
P2_7 . . . . . . .  B ADDR   00A0H.7 A   
P3 . . . . . . . .  D ADDR   00B0H   A   
P3_0 . . . . . . .  B ADDR   00B0H.0 A   
P3_1 . . . . . . .  B ADDR   00B0H.1 A   
P3_2 . . . . . . .  B ADDR   00B0H.2 A   
P3_3 . . . . . . .  B ADDR   00B0H.3 A   
P3_4 . . . . . . .  B ADDR   00B0H.4 A   
P3_5 . . . . . . .  B ADDR   00B0H.5 A   
P3_6 . . . . . . .  B ADDR   00B0H.6 A   
P3_7 . . . . . . .  B ADDR   00B0H.7 A   
P4 . . . . . . . .  D ADDR   00C0H   A   
P4_0 . . . . . . .  B ADDR   00C0H.0 A   
P4_1 . . . . . . .  B ADDR   00C0H.1 A   
PCON . . . . . . .  D ADDR   0087H   A   
PLLCON . . . . . .  D ADDR   00A3H   A   
PLLDIV . . . . . .  D ADDR   00A4H   A   
PPCL . . . . . . .  B ADDR   00B8H.6 A   
PSL. . . . . . . .  B ADDR   00B8H.4 A   
PSW. . . . . . . .  D ADDR   00D0H   A   
PT0L . . . . . . .  B ADDR   00B8H.1 A   
PT2L . . . . . . .  B ADDR   00B8H.5 A   
PTIL . . . . . . .  B ADDR   00B8H.3 A   
PX0L . . . . . . .  B ADDR   00B8H.0 A   
PXIL . . . . . . .  B ADDR   00B8H.2 A   
RB8. . . . . . . .  B ADDR   0098H.2 A   
RCAP2H . . . . . .  D ADDR   00CBH   A   
RCAP2L . . . . . .  D ADDR   00CAH   A   
RCLK . . . . . . .  B ADDR   00C8H.5 A   
REN. . . . . . . .  B ADDR   0098H.4 A   
RI . . . . . . . .  B ADDR   0098H.0 A   
RS . . . . . . . .  B ADDR   00A0H.5 A   
RW . . . . . . . .  B ADDR   00A0H.6 A   
SADDR. . . . . . .  D ADDR   00A9H   A   
SADEN. . . . . . .  D ADDR   00B9H   A   
SBUF . . . . . . .  D ADDR   0099H   A   
SCON . . . . . . .  D ADDR   0098H   A   
SM1. . . . . . . .  B ADDR   0098H.6 A   
SM2. . . . . . . .  B ADDR   0098H.5 A   
SP . . . . . . . .  D ADDR   0081H   A   
SPCON. . . . . . .  D ADDR   00C3H   A   
SPDAT. . . . . . .  D ADDR   00C5H   A   
SPSTA. . . . . . .  D ADDR   00C4H   A   
SSADR. . . . . . .  D ADDR   0096H   A   
SSCON. . . . . . .  D ADDR   0093H   A   
SSCS . . . . . . .  D ADDR   0094H   A   
SSDAT. . . . . . .  D ADDR   0095H   A   
T2CON. . . . . . .  D ADDR   00C8H   A   
T2MOD. . . . . . .  D ADDR   00C9H   A   
TB8. . . . . . . .  B ADDR   0098H.3 A   
TCLK . . . . . . .  B ADDR   00C8H.4 A   
TCON . . . . . . .  D ADDR   0088H   A   
TF0. . . . . . . .  B ADDR   0088H.5 A   
TF1. . . . . . . .  B ADDR   0088H.7 A   
TF2. . . . . . . .  B ADDR   00C8H.7 A   
TH0. . . . . . . .  D ADDR   008CH   A   
TH1. . . . . . . .  D ADDR   008DH   A   
TH2. . . . . . . .  D ADDR   00CDH   A   
TI . . . . . . . .  B ADDR   0098H.1 A   
TL0. . . . . . . .  D ADDR   008AH   A   
TL1. . . . . . . .  D ADDR   008BH   A   
TL2. . . . . . . .  D ADDR   00CCH   A   
TMOD . . . . . . .  D ADDR   0089H   A   
TR0. . . . . . . .  B ADDR   0088H.4 A   
TR1. . . . . . . .  B ADDR   0088H.6 A   
A51 MACRO ASSEMBLER  PROJETO00_PADRAO                                                     05/09/2017 16:41:09 PAGE    15

TR2. . . . . . . .  B ADDR   00C8H.2 A   
UBYCTHX. . . . . .  D ADDR   00E3H   A   
UBYCTLX. . . . . .  D ADDR   00E2H   A   
UDPADDH. . . . . .  D ADDR   00D7H   A   
UDPADDL. . . . . .  D ADDR   00D6H   A   
UEPCONX. . . . . .  D ADDR   00D4H   A   
UEPDATX. . . . . .  D ADDR   00CFH   A   
UEPIEN . . . . . .  D ADDR   00C2H   A   
UEPINT . . . . . .  D ADDR   00F8H   A   
UEPNUM . . . . . .  D ADDR   00C7H   A   
UEPRST . . . . . .  D ADDR   00D5H   A   
UEPSTAX. . . . . .  D ADDR   00CEH   A   
UFNUMH . . . . . .  D ADDR   00BBH   A   
UFNUML . . . . . .  D ADDR   00BAH   A   
USBADDR. . . . . .  D ADDR   00C6H   A   
USBCON . . . . . .  D ADDR   00BCH   A   
USBIEN . . . . . .  D ADDR   00BEH   A   
USBINT . . . . . .  D ADDR   00BDH   A   
WDTPRG . . . . . .  D ADDR   00A7H   A   
WDTRST . . . . . .  D ADDR   00A6H   A   
__STARTUP__. . . .  C ADDR   0046H   A   


REGISTER BANK(S) USED: 0 


ASSEMBLY COMPLETE.  0 WARNING(S), 0 ERROR(S)
