A51 MACRO ASSEMBLER  PROJETO_02_LOMBADA_ELETRONICA                                        04/28/2017 20:31:50 PAGE     1


MACRO ASSEMBLER A51 V8.2.5.0
OBJECT MODULE PLACED IN .\Objects\Projeto_02_Lombada_Eletronica.obj
ASSEMBLER INVOKED BY: C:\Keil_v5\C51\BIN\A51.EXE Projeto_02_Lombada_Eletronica.a51 SET(SMALL) DEBUG PRINT(.\Listings\Pro
                      jeto_02_Lombada_Eletronica.lst) OBJECT(.\Objects\Projeto_02_Lombada_Eletronica.obj) EP

LOC  OBJ            LINE     SOURCE

                       1     

                       2     

                       3     

                       4     

                       5     

                       6     

                       7     

                       8     

                       9     

                      10     

                      11     

                      12     

                      13     

                      14     

                      15     

                      16     

                      17     

                      18     

                      19     

                      20     

                      21     

                      22     

                      23     

                      24     

                      25     

                      26     

                      27     

                      28     

                      29     

0000                  30     org 000h  

0000 020040           31     ljmp __STARTUP__

                      32     

0003                  33     org 003h  

0003 02015B           34     ljmp INT_EXT0

                      35     

000B                  36     org 00Bh  

000B 02015C           37     ljmp INT_TIMER0

                      38     

0013                  39     org 013h  

0013 02015D           40     ljmp INT_EXT1

                      41     

001B                  42     org 01Bh  

001B 02015E           43     ljmp INT_TIMER1

                      44     

0023                  45     org 023h  

0023 020193           46     ljmp INT_SERIAL

                      47     

                      48     

                      49     

                      50     

                      51     

  0091                52     PINO_LED_VERMELHO                       EQU P1.1

  0092                53     PINO_LED_AMARELO                        EQU     P1.2    

                      54     

                      55     

  0093                56     BUZZER                                          EQU P1.3

                      57             

A51 MACRO ASSEMBLER  PROJETO_02_LOMBADA_ELETRONICA                                        04/28/2017 20:31:50 PAGE     2

                      58     

  00B6                59     LED_SEG                                         EQU     P3.6

  00B7                60     LED1                                            EQU     P3.7

                      61             

  0000                62     PWM_FLAG                                        EQU 0    

                      63     

  0031                64     PWM_DUTY_CYCLE                          EQU 31h  

                      65     

  0032                66     PWM_COUNTER                                     EQU 32h

                      67     

                      68     

  0033                69     PWM_PERIODO_LSB                         EQU 33h

  0034                70     PWM_PERIODO_MED                         EQU 34h 

  0035                71     PWM_PERIODO_MSB                         EQU 35h

                      72             

  0036                73     PWM_QTDADE_PERIODOS                     EQU 36h

                      74             

  0037                75     DISTANCIA_SENSORES                      EQU 37h   

                      76     

  0038                77     FLAG_PASSOU_PRIMEIRO_SENSOR EQU 38h

  0039                78     FLAG_CALCULAR_VELOCIDADE        EQU 39h   

                      79             

                      80     

  0040                81     VELOCIDADE_VEICULO_UNIDADE      EQU     40h

  0041                82     VELOCIDADE_VEICULO_DEZENA       EQU     41h

  0042                83     VELOCIDADE_VEICULO                      EQU 42h 

                      84     

  0043                85     VELOCIDADE_LIMITE                       EQU 43h  

                      86             

  0044                87     TIMER_MEDICOES_LOW                      EQU     44h

                      88     

                      89     

                      90     

  0045                91     TIMER_MEDICOES_LSB                      EQU     45h

  0046                92     TIMER_MEDICOES_MSB                      EQU     46h

                      93             

                      94     

                      95     

                      96     

                      97     

0030                  98     org 030h

0030                  99     TAB7SEG:

0030 3F065B4F        100             DB 3FH, 06H, 5BH, 4FH, 66H, 6DH, 7DH, 07H, 7FH, 6FH, 77H, 7CH, 39H, 5EH, 79H, 71H

0034 666D7D07                
0038 7F6F777C                
003C 395E7971                
                     101     

                     102     

                     103     

                     104     

                     105     

0040                 106     __STARTUP__:

0040 12005E          107                     LCALL   SETA_VARIAVEIS_INICIAIS

0043 1200B2          108                     LCALL   TIMER_CONFIGURA_TIMER

0046 120152          109                     LCALL   INT_CONFIGURA_INTERRUPCOES

                     110     

0049                 111     INICIO:

0049 120077          112                     LCALL   RESETA_TIMER_MEDICOES

                     113                     

004C D28E            114                     SETB    TR1

                     115                     

004E                 116     ESPERA_SENSOR_2:

004E 120084          117                     LCALL   SINALIZA_LOMBADA_LIGADA

                     118                     

0051 E539            119                     MOV             A, FLAG_CALCULAR_VELOCIDADE

0053 B401F8          120                     CJNE    A, #01h, ESPERA_SENSOR_2

A51 MACRO ASSEMBLER  PROJETO_02_LOMBADA_ELETRONICA                                        04/28/2017 20:31:50 PAGE     3

                     121                     

0056 120094          122                     LCALL   CALCULA_VELOCIDADE

                     123                     

0059 12005E          124                     LCALL   SETA_VARIAVEIS_INICIAIS

005C 0149            125                     AJMP    INICIO

                     126     

                     127     

                     128     

                     129     

                     130     

                     131     

                     132     

                     133     

005E                 134     SETA_VARIAVEIS_INICIAIS:

005E C291            135                     CLR             PINO_LED_VERMELHO

0060 C292            136                     CLR             PINO_LED_AMARELO

0062 C293            137                     CLR             BUZZER

                     138                     

0064 753764          139                     MOV             DISTANCIA_SENSORES,             #100d    

0067 754328          140                     MOV             VELOCIDADE_LIMITE,                      #040d    

006A 753800          141                     MOV             FLAG_PASSOU_PRIMEIRO_SENSOR,#00h 

006D 753900          142                     MOV             FLAG_CALCULAR_VELOCIDADE,       #00h

0070 754000          143                     MOV             VELOCIDADE_VEICULO_UNIDADE, #00h

0073 754100          144                     MOV             VELOCIDADE_VEICULO_DEZENA,      #00h

                     145                     

0076 22              146                     RET

                     147                     

                     148     

                     149     

                     150     

                     151     

                     152     

                     153     

                     154     

0077                 155     RESETA_TIMER_MEDICOES:

0077 754400          156                     MOV             TIMER_MEDICOES_LOW,     #00h

007A 754500          157                     MOV             TIMER_MEDICOES_LSB,     #00h

007D 754600          158                     MOV             TIMER_MEDICOES_MSB,     #00h

                     159                     

0080 754200          160                     MOV             VELOCIDADE_VEICULO,     #00h

                     161                     

0083 22              162                     RET

                     163                     

                     164     

                     165     

                     166     

                     167     

                     168     

                     169     

                     170     

                     171     

                     172     

0084                 173     SINALIZA_LOMBADA_LIGADA:

0084 7801            174                     MOV             R0, #001h  

0086 7980            175                     MOV             R1, #128d  

                     176                     

                     177                     

                     178                     

                     179                     

0088 7A29            180                     MOV             R2, #029h

008A 7BFF            181                     MOV             R3, #0FFh

008C 7CFF            182                     MOV             R4, #0FFh

008E 7D02            183                     MOV             R5, #00000010b  

                     184                     

0090 1200C5          185                     LCALL   PWM_SQUARE_WAVE_SETUP_AND_START

                     186                     

A51 MACRO ASSEMBLER  PROJETO_02_LOMBADA_ELETRONICA                                        04/28/2017 20:31:50 PAGE     4

0093 22              187                     RET     

                     188     

                     189     

                     190     

                     191     

                     192     

                     193     

                     194     

                     195     

0094                 196     CALCULA_VELOCIDADE:

0094 C3              197                     CLR             C  

                     198                     

                     199                     

                     200                     

                     201     

                     202                     

                     203                     

                     204                     

                     205                     

                     206                     

                     207                     

0095 74FF            208                     MOV             A, #0FFh

0097 9543            209                     SUBB    A, VELOCIDADE_LIMITE

                     210                     

0099 3542            211                     ADDC    A, VELOCIDADE_VEICULO

                     212                     

009B 4001            213                     JC              ACIMA_DO_LIMITE

                     214                     

009D 22              215                     RET

                     216     

009E                 217     ACIMA_DO_LIMITE:

009E 1200A2          218                     LCALL   VELOCIDADE_ACIMA_DO_LIMITE

                     219                     

00A1 22              220                     RET     

                     221     

                     222     

                     223     

                     224     

                     225     

                     226     

                     227     

                     228     

                     229     

00A2                 230     VELOCIDADE_ACIMA_DO_LIMITE:

00A2 7802            231                     MOV             R0, #02h  

00A4 7980            232                     MOV             R1, #128d  

                     233                     

                     234                     

                     235                     

                     236                     

00A6 7A29            237                     MOV             R2, #029h

00A8 7BFF            238                     MOV             R3, #0FFh

00AA 7CFF            239                     MOV             R4, #0FFh

00AC 7D05            240                     MOV             R5, #00000101b  

                     241                     

00AE 1200C5          242                     LCALL   PWM_SQUARE_WAVE_SETUP_AND_START

                     243                     

00B1 22              244                     RET

                     245     

                     246     

                     247     

                     248     

                     249     

                     250     

                     251     

                     252     

A51 MACRO ASSEMBLER  PROJETO_02_LOMBADA_ELETRONICA                                        04/28/2017 20:31:50 PAGE     5

                     253     

                     254     

                     255     

                     256     

00B2                 257     TIMER_CONFIGURA_TIMER:

00B2 758922          258                     MOV     TMOD, #00100010b  

                     259                     

00B5 11BE            260                     ACALL   TIMER_SETA_VALORES_TIMER_PADRAO

                     261                     

                     262                     

                     263                     

                     264                     

                     265                     

                     266                     

                     267                     

00B7 758DFF          268                     MOV     TH1, #0FFh

00BA 758B7A          269                     MOV             TL1, #122d

                     270                                     

00BD 22              271                     RET

                     272                     

                     273     

                     274     

                     275     

                     276     

                     277     

                     278     

                     279     

00BE                 280     TIMER_SETA_VALORES_TIMER_PADRAO:

                     281                     

                     282                     

00BE 758CCF          283                     MOV     TH0, #207d

00C1 758ACF          284                     MOV     TL0, #207d

                     285                                     

00C4 22              286                     RET

                     287                     

                     288     

                     289     

                     290     

                     291     

                     292     

                     293     

                     294     

                     295     

                     296     

                     297     

                     298     

                     299     

                     300     

                     301     

                     302     

                     303     

                     304     

                     305     

                     306     

                     307     

00C5                 308     PWM_SQUARE_WAVE_SETUP_AND_START:

00C5 8931            309                     MOV     PWM_DUTY_CYCLE, R1

                     310             

00C7 1200DB          311                     LCALL   PWM_SQUARE_WAVE_CONFIG_PERIOD

                     312             

00CA D28C            313                     SETB    TR0

                     314     

00CC                 315     CONTINUA_PWM:

00CC 1200F3          316                     LCALL   PWM_SQUARE_WAVE

                     317                     

00CF E532            318                     MOV     A, PWM_COUNTER

A51 MACRO ASSEMBLER  PROJETO_02_LOMBADA_ELETRONICA                                        04/28/2017 20:31:50 PAGE     6

00D1 B536F8          319                     CJNE    A, PWM_QTDADE_PERIODOS, CONTINUA_PWM

                     320     

00D4                 321     PWM_PARAR:

00D4 1200F0          322                     LCALL   PWM_STOP

                     323                     

00D7 753200          324                     MOV             PWM_COUNTER, #00h

                     325                     

00DA 22              326                     RET

                     327     

                     328     

                     329     

                     330     

                     331     

                     332     

                     333     

                     334     

                     335     

                     336     

                     337     

00DB                 338     PWM_SQUARE_WAVE_CONFIG_PERIOD:

00DB 8A35            339                     MOV             PWM_PERIODO_MSB, R2

00DD 8B34            340                     MOV             PWM_PERIODO_MED, R3

00DF 8C33            341                     MOV             PWM_PERIODO_LSB, R4

                     342                     

                     343                     

                     344                     

00E1 E8              345                     MOV             A, R0

00E2 28              346                     ADD             A, R0

00E3 F536            347                     MOV             PWM_QTDADE_PERIODOS, A

                     348                     

00E5 AE34            349                     MOV             R6, PWM_PERIODO_MED

00E7 AF35            350                     MOV             R7, PWM_PERIODO_MSB

                     351                     

00E9 758CFF          352                     MOV     TH0, #0FFh

00EC 85338A          353                     MOV             TL0, PWM_PERIODO_LSB

                     354                     

00EF 22              355                     RET

                     356     

                     357     

                     358     

                     359     

                     360     

                     361     

                     362     

                     363     

00F0                 364     PWM_STOP:

00F0 C28C            365                     CLR     TR0

                     366                     

00F2 22              367                     RET

                     368             

                     369     

                     370     

                     371     

                     372     

                     373     

                     374     

                     375     

                     376     

                     377     

                     378     

                     379     

                     380     

00F3                 381     PWM_SQUARE_WAVE:        

00F3 308DFD          382                     JNB     TF0, $

                     383             

00F6 DE2B            384                     DJNZ    R6, CONTINUE_SQUARE

A51 MACRO ASSEMBLER  PROJETO_02_LOMBADA_ELETRONICA                                        04/28/2017 20:31:50 PAGE     7

00F8 AE34            385                     MOV             R6, PWM_PERIODO_MED

                     386                     

00FA DF27            387                     DJNZ    R7, CONTINUE_SQUARE

00FC AF35            388                     MOV             R7, PWM_PERIODO_MSB     

                     389     

                     390                     

00FE 0532            391                     INC             PWM_COUNTER

                     392     

0100 20000E          393                     JB              PWM_FLAG, HIGH_DONE

                     394             

0103                 395     LOW_DONE:                       

0103 D200            396                     SETB    PWM_FLAG

                     397                     

0105 12013C          398                     LCALL   DEFINE_PINOS_A_SEREM_ATIVADOS_DESATIVADOS

                     399                     

0108 758CFF          400                     MOV             TH0, #0FFh

010B 85318A          401                     MOV     TL0, PWM_DUTY_CYCLE             

                     402                     

010E C28D            403                     CLR     TF0

                     404                     

0110 22              405                     RET

                     406                                     

0111                 407     HIGH_DONE:

0111 C200            408                     CLR     PWM_FLAG                         

                     409                             

0113 12013C          410                     LCALL   DEFINE_PINOS_A_SEREM_ATIVADOS_DESATIVADOS

                     411                     

0116 74FF            412                     MOV     A, #0FFh                 

0118 C3              413                     CLR             C

0119 9531            414                     SUBB    A, PWM_DUTY_CYCLE

                     415                     

011B 758CFF          416                     MOV     TH0, #0FFh                       

011E F58A            417                     MOV             TL0, A

                     418                     

0120 C28D            419                     CLR     TF0                                      

                     420                     

0122 22              421                     RET

                     422     

0123                 423     CONTINUE_SQUARE:

0123 30000D          424                     JNB             PWM_FLAG, CONTINUE_SQUARE_LOW

                     425             

0126                 426     CONTINUE_SQUARE_HIGH:

0126 74FF            427                     MOV     A, #0FFh                 

0128 C3              428                     CLR             C

0129 9531            429                     SUBB    A, PWM_DUTY_CYCLE

                     430                     

012B 758CFF          431                     MOV     TH0, #0FFh                       

012E F58A            432                     MOV             TL0, A

                     433                     

0130 C28D            434                     CLR     TF0

                     435     

0132 22              436                     RET

                     437                     

0133                 438     CONTINUE_SQUARE_LOW:

0133 758CFF          439                     MOV             TH0, #0FFh

0136 85318A          440                     MOV     TL0, PWM_DUTY_CYCLE

                     441                     

0139 C28D            442                     CLR     TF0

                     443                     

013B 22              444                     RET

                     445     

                     446     

                     447     

                     448     

                     449     

                     450     

A51 MACRO ASSEMBLER  PROJETO_02_LOMBADA_ELETRONICA                                        04/28/2017 20:31:50 PAGE     8

                     451     

                     452     

                     453     

                     454     

                     455     

013C                 456     DEFINE_PINOS_A_SEREM_ATIVADOS_DESATIVADOS:

013C 7401            457                     MOV             A, #01h

013E 5D              458                     ANL             A, R5

013F 6002            459                     JZ              NAO_ATIVA_BIT_0

                     460                     

0141 B291            461                     CPL     PINO_LED_VERMELHO

                     462                     

0143                 463     NAO_ATIVA_BIT_0:

0143 7402            464                     MOV             A, #02h

0145 5D              465                     ANL             A, R5

0146 6002            466                     JZ              NAO_ATIVA_BIT_1

                     467                     

0148 B292            468                     CPL     PINO_LED_AMARELO

                     469     

014A                 470     NAO_ATIVA_BIT_1:

014A 7404            471                     MOV             A, #04h

014C 5D              472                     ANL             A, R5

014D 6002            473                     JZ              NAO_ATIVA_BIT_2

                     474                     

014F B293            475                     CPL     BUZZER

                     476     

0151                 477     NAO_ATIVA_BIT_2:

0151 22              478                     RET

                     479     

                     480     

                     481     

                     482     

                     483     

                     484     

                     485     

                     486     

                     487     

                     488     

                     489     

                     490     

                     491     

0152                 492     INT_CONFIGURA_INTERRUPCOES:

                     493                     

0152 D2AF            494                     SETB    EA

                     495                     

                     496                     

0154 D2AB            497                     SETB    ET1

                     498                     

                     499                     

                     500                     

                     501                     

0156 C2BB            502                     CLR             PT1              

                     503                     

                     504                     

                     505                     

                     506                     

0158 C28A            507                     CLR             IT1              

                     508                     

015A 22              509                     RET

                     510     

                     511     

                     512     

                     513     

                     514     

                     515     

                     516     

A51 MACRO ASSEMBLER  PROJETO_02_LOMBADA_ELETRONICA                                        04/28/2017 20:31:50 PAGE     9

                     517     

015B                 518     INT_EXT0:

                     519                     

                     520     

                     521     

                     522     

                     523     

                     524     

                     525     

                     526     

                     527                     

015B 32              528                     RETI

                     529     

                     530     

                     531     

                     532     

                     533     

                     534     

                     535     

                     536     

015C                 537     INT_TIMER0:

015C 32              538                     RETI

                     539             

                     540     

                     541     

                     542     

                     543     

                     544     

                     545     

                     546     

015D                 547     INT_EXT1:

                     548                     

                     549     

                     550     

                     551     

                     552     

                     553     

                     554     

                     555     

                     556     

                     557     

                     558     

                     559     

                     560     

                     561     

                     562     

                     563     

                     564                     

015D 32              565                     RETI

                     566     

                     567     

                     568     

                     569     

                     570     

                     571     

                     572     

                     573     

                     574     

                     575     

                     576     

015E                 577     INT_TIMER1:

015E C0E0            578                     PUSH    ACC

0160 C0D0            579                     PUSH    PSW

                     580                     

0162 758B7A          581                     MOV             TL1, #122d

0165 C28F            582                     CLR             TF1

A51 MACRO ASSEMBLER  PROJETO_02_LOMBADA_ELETRONICA                                        04/28/2017 20:31:50 PAGE    10

                     583                     

0167 E544            584                     MOV             A, TIMER_MEDICOES_LOW

0169 B41419          585                     CJNE    A, #020d, INCREMENTA_TIMER_MEDICOES_LOW       

                     586             

016C E545            587                     MOV             A, TIMER_MEDICOES_LSB

016E B4FA18          588                     CJNE    A, #0250d, INCREMENTA_TIMER_MEDICOES_LSB         

                     589                     

0171 754400          590                     MOV             TIMER_MEDICOES_LOW, #00h

0174 754500          591                     MOV             TIMER_MEDICOES_LSB, #00h

0177 0546            592                     INC             TIMER_MEDICOES_MSB

                     593                     

0179 E546            594                     MOV             A, TIMER_MEDICOES_MSB

017B B40210          595                     CJNE    A, #02d, FINALIZA_TIMER_1        

                     596                     

017E C28E            597                     CLR             TR1

0180 753901          598                     MOV             FLAG_CALCULAR_VELOCIDADE, #01h

0183 218E            599                     AJMP    FINALIZA_TIMER_1

                     600             

0185                 601     INCREMENTA_TIMER_MEDICOES_LOW:

0185 0544            602                     INC             TIMER_MEDICOES_LOW

0187 218E            603                     AJMP    FINALIZA_TIMER_1

                     604                     

0189                 605     INCREMENTA_TIMER_MEDICOES_LSB:

0189 754400          606                     MOV             TIMER_MEDICOES_LOW, #00h

018C 0545            607                     INC             TIMER_MEDICOES_LSB

                     608     

018E                 609     FINALIZA_TIMER_1:

018E D0D0            610                     POP             PSW

0190 D0E0            611                     POP             ACC

                     612                     

0192 32              613                     RETI

                     614             

                     615     

                     616     

                     617     

                     618     

                     619     

                     620     

                     621     

0193                 622     INT_SERIAL:

0193 32              623                     RETI

                     624             

0194                 625     FIM:

0194 80FE            626                     JMP $

                     627                     END

A51 MACRO ASSEMBLER  PROJETO_02_LOMBADA_ELETRONICA                                        04/28/2017 20:31:50 PAGE    11

SYMBOL TABLE LISTING
------ ----- -------


N A M E                                    T Y P E  V A L U E   ATTRIBUTES

ACC . . . . . . . . . . . . . . . . . .    D ADDR   00E0H   A   
ACIMA_DO_LIMITE . . . . . . . . . . . .    C ADDR   009EH   A   
BUZZER. . . . . . . . . . . . . . . . .    B ADDR   0090H.3 A   
CALCULA_VELOCIDADE. . . . . . . . . . .    C ADDR   0094H   A   
CONTINUA_PWM. . . . . . . . . . . . . .    C ADDR   00CCH   A   
CONTINUE_SQUARE . . . . . . . . . . . .    C ADDR   0123H   A   
CONTINUE_SQUARE_HIGH. . . . . . . . . .    C ADDR   0126H   A   
CONTINUE_SQUARE_LOW . . . . . . . . . .    C ADDR   0133H   A   
DEFINE_PINOS_A_SEREM_ATIVADOS_DESATIVADOS  C ADDR   013CH   A   
DISTANCIA_SENSORES. . . . . . . . . . .    N NUMB   0037H   A   
EA. . . . . . . . . . . . . . . . . . .    B ADDR   00A8H.7 A   
ESPERA_SENSOR_2 . . . . . . . . . . . .    C ADDR   004EH   A   
ET1 . . . . . . . . . . . . . . . . . .    B ADDR   00A8H.3 A   
FIM . . . . . . . . . . . . . . . . . .    C ADDR   0194H   A   
FINALIZA_TIMER_1. . . . . . . . . . . .    C ADDR   018EH   A   
FLAG_CALCULAR_VELOCIDADE. . . . . . . .    N NUMB   0039H   A   
FLAG_PASSOU_PRIMEIRO_SENSOR . . . . . .    N NUMB   0038H   A   
HIGH_DONE . . . . . . . . . . . . . . .    C ADDR   0111H   A   
INCREMENTA_TIMER_MEDICOES_LOW . . . . .    C ADDR   0185H   A   
INCREMENTA_TIMER_MEDICOES_LSB . . . . .    C ADDR   0189H   A   
INICIO. . . . . . . . . . . . . . . . .    C ADDR   0049H   A   
INT_CONFIGURA_INTERRUPCOES. . . . . . .    C ADDR   0152H   A   
INT_EXT0. . . . . . . . . . . . . . . .    C ADDR   015BH   A   
INT_EXT1. . . . . . . . . . . . . . . .    C ADDR   015DH   A   
INT_SERIAL. . . . . . . . . . . . . . .    C ADDR   0193H   A   
INT_TIMER0. . . . . . . . . . . . . . .    C ADDR   015CH   A   
INT_TIMER1. . . . . . . . . . . . . . .    C ADDR   015EH   A   
IT1 . . . . . . . . . . . . . . . . . .    B ADDR   0088H.2 A   
LED1. . . . . . . . . . . . . . . . . .    B ADDR   00B0H.7 A   
LED_SEG . . . . . . . . . . . . . . . .    B ADDR   00B0H.6 A   
LOW_DONE. . . . . . . . . . . . . . . .    C ADDR   0103H   A   
NAO_ATIVA_BIT_0 . . . . . . . . . . . .    C ADDR   0143H   A   
NAO_ATIVA_BIT_1 . . . . . . . . . . . .    C ADDR   014AH   A   
NAO_ATIVA_BIT_2 . . . . . . . . . . . .    C ADDR   0151H   A   
P1. . . . . . . . . . . . . . . . . . .    D ADDR   0090H   A   
P3. . . . . . . . . . . . . . . . . . .    D ADDR   00B0H   A   
PINO_LED_AMARELO. . . . . . . . . . . .    B ADDR   0090H.2 A   
PINO_LED_VERMELHO . . . . . . . . . . .    B ADDR   0090H.1 A   
PSW . . . . . . . . . . . . . . . . . .    D ADDR   00D0H   A   
PT1 . . . . . . . . . . . . . . . . . .    B ADDR   00B8H.3 A   
PWM_COUNTER . . . . . . . . . . . . . .    N NUMB   0032H   A   
PWM_DUTY_CYCLE. . . . . . . . . . . . .    N NUMB   0031H   A   
PWM_FLAG. . . . . . . . . . . . . . . .    N NUMB   0000H   A   
PWM_PARAR . . . . . . . . . . . . . . .    C ADDR   00D4H   A   
PWM_PERIODO_LSB . . . . . . . . . . . .    N NUMB   0033H   A   
PWM_PERIODO_MED . . . . . . . . . . . .    N NUMB   0034H   A   
PWM_PERIODO_MSB . . . . . . . . . . . .    N NUMB   0035H   A   
PWM_QTDADE_PERIODOS . . . . . . . . . .    N NUMB   0036H   A   
PWM_SQUARE_WAVE . . . . . . . . . . . .    C ADDR   00F3H   A   
PWM_SQUARE_WAVE_CONFIG_PERIOD . . . . .    C ADDR   00DBH   A   
PWM_SQUARE_WAVE_SETUP_AND_START . . . .    C ADDR   00C5H   A   
PWM_STOP. . . . . . . . . . . . . . . .    C ADDR   00F0H   A   
RESETA_TIMER_MEDICOES . . . . . . . . .    C ADDR   0077H   A   
SETA_VARIAVEIS_INICIAIS . . . . . . . .    C ADDR   005EH   A   
SINALIZA_LOMBADA_LIGADA . . . . . . . .    C ADDR   0084H   A   
TAB7SEG . . . . . . . . . . . . . . . .    C ADDR   0030H   A   
TF0 . . . . . . . . . . . . . . . . . .    B ADDR   0088H.5 A   
TF1 . . . . . . . . . . . . . . . . . .    B ADDR   0088H.7 A   
TH0 . . . . . . . . . . . . . . . . . .    D ADDR   008CH   A   
TH1 . . . . . . . . . . . . . . . . . .    D ADDR   008DH   A   
A51 MACRO ASSEMBLER  PROJETO_02_LOMBADA_ELETRONICA                                        04/28/2017 20:31:50 PAGE    12

TIMER_CONFIGURA_TIMER . . . . . . . . .    C ADDR   00B2H   A   
TIMER_MEDICOES_LOW. . . . . . . . . . .    N NUMB   0044H   A   
TIMER_MEDICOES_LSB. . . . . . . . . . .    N NUMB   0045H   A   
TIMER_MEDICOES_MSB. . . . . . . . . . .    N NUMB   0046H   A   
TIMER_SETA_VALORES_TIMER_PADRAO . . . .    C ADDR   00BEH   A   
TL0 . . . . . . . . . . . . . . . . . .    D ADDR   008AH   A   
TL1 . . . . . . . . . . . . . . . . . .    D ADDR   008BH   A   
TMOD. . . . . . . . . . . . . . . . . .    D ADDR   0089H   A   
TR0 . . . . . . . . . . . . . . . . . .    B ADDR   0088H.4 A   
TR1 . . . . . . . . . . . . . . . . . .    B ADDR   0088H.6 A   
VELOCIDADE_ACIMA_DO_LIMITE. . . . . . .    C ADDR   00A2H   A   
VELOCIDADE_LIMITE . . . . . . . . . . .    N NUMB   0043H   A   
VELOCIDADE_VEICULO. . . . . . . . . . .    N NUMB   0042H   A   
VELOCIDADE_VEICULO_DEZENA . . . . . . .    N NUMB   0041H   A   
VELOCIDADE_VEICULO_UNIDADE. . . . . . .    N NUMB   0040H   A   
__STARTUP__ . . . . . . . . . . . . . .    C ADDR   0040H   A   


REGISTER BANK(S) USED: 0 


ASSEMBLY COMPLETE.  0 WARNING(S), 0 ERROR(S)
