A51 MACRO ASSEMBLER  PROJETO_02_LOMBADA_ELETRONICA                                        05/07/2017 19:44:45 PAGE     1


MACRO ASSEMBLER A51 V8.2.5.0
OBJECT MODULE PLACED IN .\Objects\Projeto_02_Lombada_Eletronica.obj
ASSEMBLER INVOKED BY: C:\Keil_v5\C51\BIN\A51.EXE Projeto_02_Lombada_Eletronica.a51 SET(SMALL) DEBUG PRINT(.\Listings\Pro
                      jeto_02_Lombada_Eletronica.lst) OBJECT(.\Objects\Projeto_02_Lombada_Eletronica.obj) EP

LOC  OBJ            LINE     SOURCE

                       1     

                       2     

                       3     

                       4     

                       5     

                       6     

                       7     

                       8     

                       9     

                      10     

                      11     

                      12     

                      13     

                      14     

                      15     

                      16     

                      17     

                      18     

                      19     

                      20     

                      21     

                      22     

0000                  23     org 000h  

0000 020040           24     ljmp __STARTUP__

                      25     

0003                  26     org 003h  

0003 020163           27     ljmp INT_EXT0

                      28     

000B                  29     org 00Bh  

000B 020173           30     ljmp INT_TIMER0

                      31     

0013                  32     org 013h  

0013 020174           33     ljmp INT_EXT1

                      34     

001B                  35     org 01Bh  

001B 020175           36     ljmp INT_TIMER1

                      37     

0023                  38     org 023h  

0023 0201AA           39     ljmp INT_SERIAL

                      40     

                      41     

                      42     

                      43     

                      44     

  0080                45     PORT_DISPLAY                            EQU     P0

                      46     

  0090                47     DISPLAY_UNIDADE                         EQU P1.0

  0091                48     DISPLAY_DEZENA                          EQU P1.1

                      49     

  0096                50     PINO_LED_VERMELHO                       EQU P1.6

                      51             

  0097                52     BUZZER                                          EQU P1.7

                      53             

  00B0                54     TRIGGER_ULTRASSOM_RECEPTOR      EQU P3.0

  00B1                55     TRIGGER_ULTRASSOM_ENVIO         EQU P3.1

                      56             

                      57     

A51 MACRO ASSEMBLER  PROJETO_02_LOMBADA_ELETRONICA                                        05/07/2017 19:44:45 PAGE     2

  00B6                58     LED_SEG                                         EQU     P3.6

  00B7                59     LED1                                            EQU     P3.7

                      60     

  0037                61     FLAG_MEDIR_DISTANCIA_INIT       EQU 37h

  0038                62     FLAG_CALCULAR_VELOCIDADE        EQU 38h   

                      63             

                      64     

  0039                65     VELOCIDADE_VEICULO_UNIDADE      EQU     39h

  0040                66     VELOCIDADE_VEICULO_DEZENA       EQU     40h

  0041                67     VELOCIDADE_VEICULO                      EQU 41h 

                      68     

  0042                69     VELOCIDADE_LIMITE                       EQU 42h  

                      70             

  0043                71     TIMER_MEDICOES_LOW                      EQU     43h

                      72     

                      73     

                      74     

  0044                75     TIMER_MEDICOES_LSB                      EQU     44h

  0045                76     TIMER_MEDICOES_MSB                      EQU     45h

                      77             

  0046                78     DISTANCIA_ANTERIOR                      EQU     46h

  0047                79     DISTANCIA_ATUAL                         EQU     47h

                      80             

                      81     

                      82     

                      83     

                      84     

0030                  85     org 030h

0030                  86     TAB7SEG:

0030 3F065B4F         87             DB 3FH, 06H, 5BH, 4FH, 66H, 6DH, 7DH, 07H, 7FH, 6FH, 77H, 7CH, 39H, 5EH, 79H, 71H

0034 666D7D07                
0038 7F6F777C                
003C 395E7971                
                      88     

                      89     

                      90     

                      91     

                      92     

0040                  93     __STARTUP__:

0040 12006A           94                     LCALL   SETA_VARIAVEIS_INICIAIS

0043 120154           95                     LCALL   INT_CONFIGURA_INTERRUPCOES

                      96                     

0046                  97     ESPERA_TRIGGER_CALCULAR_DISTANCIA_INIT:

0046 E537             98                     MOV             A, FLAG_MEDIR_DISTANCIA_INIT

0048 B401FB           99                     CJNE    A, #01h, ESPERA_TRIGGER_CALCULAR_DISTANCIA_INIT

                     100                     

004B 7946            101                     MOV             R1, #DISTANCIA_ANTERIOR

004D 120091          102                     LCALL   MEDIR_DISTANCIA

                     103                     

                     104                     

0050 120119          105                     LCALL   TIMER_CONFIGURA_TIMER

0053 120154          106                     LCALL   INT_CONFIGURA_INTERRUPCOES

0056 120084          107                     LCALL   RESETA_TIMER_MEDICOES

                     108                     

0059 D28E            109                     SETB    TR1

                     110                     

005B                 111     ESPERA_FLAG_MEDIR_DISTANCIA_2:

005B E538            112                     MOV             A, FLAG_CALCULAR_VELOCIDADE

005D B401FB          113                     CJNE    A, #01h, ESPERA_FLAG_MEDIR_DISTANCIA_2

                     114                     

0060 7947            115                     MOV             R1, #DISTANCIA_ATUAL

0062 120091          116                     LCALL   MEDIR_DISTANCIA

                     117                     

0065 1200BF          118                     LCALL   CALCULA_VELOCIDADE

                     119                     

0068 0140            120                     AJMP    __STARTUP__

A51 MACRO ASSEMBLER  PROJETO_02_LOMBADA_ELETRONICA                                        05/07/2017 19:44:45 PAGE     3

                     121     

                     122     

                     123     

                     124     

                     125     

                     126     

                     127     

                     128     

006A                 129     SETA_VARIAVEIS_INICIAIS:

006A D296            130                     SETB    PINO_LED_VERMELHO

006C D297            131                     SETB    BUZZER

                     132                     

006E 754214          133                     MOV             VELOCIDADE_LIMITE,                      #020d    

0071 753700          134                     MOV             FLAG_MEDIR_DISTANCIA_INIT,      #00h 

0074 753800          135                     MOV             FLAG_CALCULAR_VELOCIDADE,       #00h

0077 753900          136                     MOV             VELOCIDADE_VEICULO_UNIDADE, #00h

007A 754000          137                     MOV             VELOCIDADE_VEICULO_DEZENA,      #00h

007D 754600          138                     MOV             DISTANCIA_ANTERIOR,             #00h                    

0080 754700          139                     MOV             DISTANCIA_ATUAL,                        #00h               
                                          

                     140                     

0083 22              141                     RET

                     142                     

                     143     

                     144     

                     145     

                     146     

                     147     

                     148     

                     149     

0084                 150     RESETA_TIMER_MEDICOES:

0084 754300          151                     MOV             TIMER_MEDICOES_LOW,     #00h

0087 754400          152                     MOV             TIMER_MEDICOES_LSB,     #00h

008A 754500          153                     MOV             TIMER_MEDICOES_MSB,     #00h

                     154                     

008D 754100          155                     MOV             VELOCIDADE_VEICULO,     #00h

                     156                     

0090 22              157                     RET     

                     158                     

                     159     

                     160     

                     161     

                     162     

                     163     

                     164     

                     165     

0091                 166     MEDIR_DISTANCIA:

0091 C290            167                     CLR             DISPLAY_UNIDADE 

0093 C291            168                     CLR     DISPLAY_DEZENA

                     169                     

0095 758000          170                     MOV     PORT_DISPLAY, #00h

                     171                     

0098 C2B0            172                     CLR     TRIGGER_ULTRASSOM_RECEPTOR       

009A D2B1            173                     SETB    TRIGGER_ULTRASSOM_ENVIO      

                     174     

009C 758920          175                     MOV     TMOD, #00100000B         

009F 758B82          176                     MOV     TL1, #130D    

00A2 758D82          177                     MOV     TH1, #130D    

                     178                     

00A5 7400            179                     MOV     A, #00h

                     180                     

00A7 D2B0            181                     SETB    TRIGGER_ULTRASSOM_RECEPTOR       

                     182                     

00A9 314A            183                     ACALL   TIMER_DELAY_10_US      

                     184                     

00AB C2B0            185                     CLR     TRIGGER_ULTRASSOM_RECEPTOR

A51 MACRO ASSEMBLER  PROJETO_02_LOMBADA_ELETRONICA                                        05/07/2017 19:44:45 PAGE     4

                     186     

00AD                 187     ESPERANDO_RESPOSTA_ECHO:        

00AD 30B1FD          188                     JNB     TRIGGER_ULTRASSOM_ENVIO, $     

                     189     

00B0                 190     ECHO_AINDA_DISPONIVEL:  

00B0 D28E            191                     SETB    TR1         

                     192     

00B2 308FFD          193                     JNB     TF1, $

                     194           

00B5 C28E            195                     CLR     TR1          

00B7 C28F            196                     CLR     TF1          

                     197           

00B9 04              198                     INC     A        

                     199           

00BA 20B1F3          200                     JB              TRIGGER_ULTRASSOM_ENVIO, ECHO_AINDA_DISPONIVEL   

                     201           

00BD F7              202                     MOV     @R1, A   

                     203               

00BE 22              204                     RET

                     205     

                     206     

                     207     

                     208     

                     209     

                     210     

                     211     

                     212     

00BF                 213     CALCULA_VELOCIDADE:

00BF C3              214                     CLR             C  

                     215                     

00C0 E546            216                     MOV     A, DISTANCIA_ANTERIOR

00C2 8547F0          217                     MOV             B, DISTANCIA_ATUAL

                     218                     

00C5 95F0            219                     SUBB    A, B

                     220     

00C7 5008            221                     JNC             DISTANCIA_ANTERIOR_MAIOR_QUE_ATUAL      

                     222                     

00C9                 223     DISTANCIA_ATUAL_MAIOR_QUE_ANTERIOR:

00C9 E547            224                     MOV     A, DISTANCIA_ATUAL

00CB 9546            225                     SUBB    A, DISTANCIA_ANTERIOR

                     226                     

00CD F541            227                     MOV             VELOCIDADE_VEICULO, A

                     228                     

00CF 8006            229                     JMP             DLOOP

                     230     

00D1                 231     DISTANCIA_ANTERIOR_MAIOR_QUE_ATUAL:

00D1 E546            232                     MOV     A, DISTANCIA_ANTERIOR

00D3 9547            233                     SUBB    A, DISTANCIA_ATUAL

                     234                     

00D5 F541            235                     MOV             VELOCIDADE_VEICULO, A

                     236                     

00D7                 237     DLOOP: 

                     238                

                     239                

                     240                

00D7 74FF            241                MOV          A, #0FFh

00D9 9542            242                SUBB         A, VELOCIDADE_LIMITE

                     243                     

00DB 3541            244                ADDC         A, VELOCIDADE_VEICULO

                     245                     

00DD 4027            246                JC           ACIMA_DO_LIMITE

                     247     

00DF                 248     CONTINUA_DLOOP:

00DF 7D64            249                     MOV     R5,#100d

00E1 7E0F            250                     MOV             R6,#15d

00E3                 251     BACK1: 

A51 MACRO ASSEMBLER  PROJETO_02_LOMBADA_ELETRONICA                                        05/07/2017 19:44:45 PAGE     5

00E3 E541            252                     MOV     A, VELOCIDADE_VEICULO        

00E5 75F00A          253                     MOV     B, #10d          

                     254            

00E8 84              255                     DIV     AB           

                     256            

00E9 D290            257                     SETB    DISPLAY_UNIDADE        

00EB 3111            258             ACALL   MOSTRA_VELOCIDADE_DISPLAY    

                     259                

00ED 314F            260                     ACALL   TIMER_DELAY_1_MS     

                     261            

00EF E5F0            262                     MOV     A,B          

00F1 C290            263                     CLR     DISPLAY_UNIDADE         

00F3 D291            264                     SETB    DISPLAY_DEZENA          

00F5 3111            265                     ACALL   MOSTRA_VELOCIDADE_DISPLAY  

                     266            

00F7 314F            267                     ACALL   TIMER_DELAY_1_MS 

                     268            

00F9 C291            269                     CLR     DISPLAY_DEZENA        

                     270                

                     271                     

00FB DEE6            272                     DJNZ    R6, BACK1

00FD 7E15            273                     MOV             R6, #15h

00FF DDE2            274                     DJNZ    R5, BACK1  

                     275                

                     276                     

0101 D296            277                     SETB    PINO_LED_VERMELHO

0103 D297            278                     SETB    BUZZER

                     279                

0105 22              280                     RET

                     281     

0106                 282     ACIMA_DO_LIMITE:

0106 12010C          283                     LCALL   VELOCIDADE_ACIMA_DO_LIMITE

                     284                     

0109 80D4            285                     JMP             CONTINUA_DLOOP

                     286                     

010B 22              287                     RET     

                     288     

                     289     

                     290     

                     291     

                     292     

                     293     

                     294     

                     295     

010C                 296     VELOCIDADE_ACIMA_DO_LIMITE:

010C C296            297                     CLR             PINO_LED_VERMELHO

010E C297            298                     CLR             BUZZER

                     299     

0110 22              300                     RET

                     301     

                     302     

                     303     

                     304     

                     305     

                     306     

                     307     

                     308     

0111                 309     MOSTRA_VELOCIDADE_DISPLAY:

0111 900030          310                     MOV     DPTR, #TAB7SEG   

                     311                     

0114 93              312                     MOVC    A, @A + DPTR     

0115 F4              313             CPL     A                

0116 F580            314                     MOV     PORT_DISPLAY, A  

                     315                     

0118 22              316                     RET

                     317     

A51 MACRO ASSEMBLER  PROJETO_02_LOMBADA_ELETRONICA                                        05/07/2017 19:44:45 PAGE     6

                     318     

                     319     

                     320     

                     321     

                     322     

                     323     

                     324     

                     325     

                     326     

                     327     

                     328     

0119                 329     TIMER_CONFIGURA_TIMER:

0119 758922          330                     MOV     TMOD, #00100010b  

                     331                     

011C 3125            332                     ACALL   TIMER_SETA_VALORES_TIMER_PADRAO

                     333                     

                     334                     

                     335                     

                     336                     

                     337                     

                     338                     

                     339                     

011E 758DFF          340                     MOV     TH1, #0FFh

0121 758B7A          341                     MOV             TL1, #122d

                     342                                     

0124 22              343                     RET

                     344                     

                     345     

                     346     

                     347     

                     348     

                     349     

                     350     

                     351     

0125                 352     TIMER_SETA_VALORES_TIMER_PADRAO:

                     353                     

                     354                     

0125 758CCF          355                     MOV     TH0, #207d

0128 758ACF          356                     MOV     TL0, #207d

                     357                                     

012B 22              358                     RET

                     359                     

                     360     

                     361     

                     362     

                     363     

                     364     

                     365     

                     366     

012C                 367     TIMER_DELAY_20_MS:

012C 758901          368                     MOV     TMOD, #00000001b  

                     369                     

                     370                     

012F 758C56          371                     MOV     TH0, #HIGH(65535 - 43350)

0132 758AA9          372                     MOV     TL0, #LOW(65535 - 43350)

                     373     

0135 C28D            374                     CLR     TF0

0137 D28C            375                     SETB    TR0

                     376             

0139 308DFD          377                     JNB     TF0, $

                     378                     

013C C28D            379                     CLR     TF0

013E C28C            380                     CLR     TR0

                     381             

0140 D8EA            382                     DJNZ R0, TIMER_DELAY_20_MS

                     383             

A51 MACRO ASSEMBLER  PROJETO_02_LOMBADA_ELETRONICA                                        05/07/2017 19:44:45 PAGE     7

0142 22              384                     RET

                     385             

                     386     

                     387     

                     388     

                     389     

                     390     

                     391     

                     392     

0143                 393     TIMER_DELAY_1_S:

0143 7832            394                     MOV             R0, #50d

0145 312C            395                     CALL    TIMER_DELAY_20_MS

                     396                     

0147 D9FA            397                     DJNZ    R1, TIMER_DELAY_1_S

                     398             

0149 22              399                     RET

                     400     

                     401     

                     402     

                     403     

                     404     

                     405     

                     406     

                     407     

014A                 408     TIMER_DELAY_10_US: 

014A 7E02            409                     MOV     R6, #2D     

014C DEFE            410                     DJNZ    R6, $

                     411                     

014E 22              412                     RET

                     413     

                     414     

                     415     

                     416     

                     417     

                     418     

                     419     

                     420     

014F                 421     TIMER_DELAY_1_MS: 

014F 7FFA            422                     MOV     R7, #250d        

0151 DFFE            423                     DJNZ    R7, $

                     424             

0153 22              425                     RET

                     426     

                     427     

                     428     

                     429     

                     430     

                     431     

                     432     

                     433     

                     434     

                     435     

                     436     

                     437     

                     438     

0154                 439     INT_CONFIGURA_INTERRUPCOES:

                     440                     

0154 D2AF            441                     SETB    EA

0156 D2A8            442                     SETB    EX0

0158 D2AB            443                     SETB    ET1

                     444                     

                     445                     

015A C2B8            446                     CLR             PX0              

015C D2BB            447                     SETB    PT1              

                     448                     

                     449                     

A51 MACRO ASSEMBLER  PROJETO_02_LOMBADA_ELETRONICA                                        05/07/2017 19:44:45 PAGE     8

015E C289            450                     CLR             IE0              

0160 C28A            451                     CLR             IT1              

                     452                     

0162 22              453                     RET

                     454     

                     455     

                     456     

                     457     

                     458     

                     459     

                     460     

                     461     

0163                 462     INT_EXT0:

0163 C0E0            463                     PUSH    ACC

0165 C0D0            464                     PUSH    PSW

                     465                     

0167 753701          466                     MOV             FLAG_MEDIR_DISTANCIA_INIT, #01h

                     467                     

016A 7805            468                     MOV     R0, #05h                 

016C 312C            469                     ACALL   TIMER_DELAY_20_MS

                     470                     

016E D0D0            471                     POP             PSW

0170 D0E0            472                     POP             ACC

                     473                     

0172 32              474                     RETI

                     475     

                     476     

                     477     

                     478     

                     479     

                     480     

                     481     

                     482     

0173                 483     INT_TIMER0:

0173 32              484                     RETI

                     485             

                     486     

                     487     

                     488     

                     489     

                     490     

                     491     

                     492     

0174                 493     INT_EXT1:

0174 32              494                     RETI

                     495     

                     496     

                     497     

                     498     

                     499     

                     500     

                     501     

                     502     

                     503     

                     504     

                     505     

0175                 506     INT_TIMER1:

0175 C0E0            507                     PUSH    ACC

0177 C0D0            508                     PUSH    PSW

                     509                     

0179 758B7A          510                     MOV             TL1, #122d

017C C28F            511                     CLR             TF1

                     512                     

017E E543            513                     MOV             A, TIMER_MEDICOES_LOW

0180 B41419          514                     CJNE    A, #020d, INCREMENTA_TIMER_MEDICOES_LOW       

                     515             

A51 MACRO ASSEMBLER  PROJETO_02_LOMBADA_ELETRONICA                                        05/07/2017 19:44:45 PAGE     9

0183 E544            516                     MOV             A, TIMER_MEDICOES_LSB

0185 B4FA18          517                     CJNE    A, #0250d, INCREMENTA_TIMER_MEDICOES_LSB         

                     518                     

0188 754300          519                     MOV             TIMER_MEDICOES_LOW, #00h

018B 754400          520                     MOV             TIMER_MEDICOES_LSB, #00h

018E 0545            521                     INC             TIMER_MEDICOES_MSB

                     522                     

0190 E545            523                     MOV             A, TIMER_MEDICOES_MSB

0192 B40210          524                     CJNE    A, #02d, FINALIZA_TIMER_1        

                     525                     

0195 C28E            526                     CLR             TR1

0197 753801          527                     MOV             FLAG_CALCULAR_VELOCIDADE, #01h

019A 21A5            528                     AJMP    FINALIZA_TIMER_1

                     529             

019C                 530     INCREMENTA_TIMER_MEDICOES_LOW:

019C 0543            531                     INC             TIMER_MEDICOES_LOW

019E 21A5            532                     AJMP    FINALIZA_TIMER_1

                     533                     

01A0                 534     INCREMENTA_TIMER_MEDICOES_LSB:

01A0 754300          535                     MOV             TIMER_MEDICOES_LOW, #00h

01A3 0544            536                     INC             TIMER_MEDICOES_LSB

                     537     

01A5                 538     FINALIZA_TIMER_1:

01A5 D0D0            539                     POP             PSW

01A7 D0E0            540                     POP             ACC

                     541                     

01A9 32              542                     RETI

                     543             

                     544     

                     545     

                     546     

                     547     

                     548     

                     549     

                     550     

01AA                 551     INT_SERIAL:

01AA 32              552                     RETI

                     553             

01AB                 554     FIM:

01AB 80FE            555                     JMP $

                     556                     END

A51 MACRO ASSEMBLER  PROJETO_02_LOMBADA_ELETRONICA                                        05/07/2017 19:44:45 PAGE    10

SYMBOL TABLE LISTING
------ ----- -------


N A M E                                 T Y P E  V A L U E   ATTRIBUTES

ACC. . . . . . . . . . . . . . . . . .  D ADDR   00E0H   A   
ACIMA_DO_LIMITE. . . . . . . . . . . .  C ADDR   0106H   A   
B. . . . . . . . . . . . . . . . . . .  D ADDR   00F0H   A   
BACK1. . . . . . . . . . . . . . . . .  C ADDR   00E3H   A   
BUZZER . . . . . . . . . . . . . . . .  B ADDR   0090H.7 A   
CALCULA_VELOCIDADE . . . . . . . . . .  C ADDR   00BFH   A   
CONTINUA_DLOOP . . . . . . . . . . . .  C ADDR   00DFH   A   
DISPLAY_DEZENA . . . . . . . . . . . .  B ADDR   0090H.1 A   
DISPLAY_UNIDADE. . . . . . . . . . . .  B ADDR   0090H.0 A   
DISTANCIA_ANTERIOR . . . . . . . . . .  N NUMB   0046H   A   
DISTANCIA_ANTERIOR_MAIOR_QUE_ATUAL . .  C ADDR   00D1H   A   
DISTANCIA_ATUAL. . . . . . . . . . . .  N NUMB   0047H   A   
DISTANCIA_ATUAL_MAIOR_QUE_ANTERIOR . .  C ADDR   00C9H   A   
DLOOP. . . . . . . . . . . . . . . . .  C ADDR   00D7H   A   
EA . . . . . . . . . . . . . . . . . .  B ADDR   00A8H.7 A   
ECHO_AINDA_DISPONIVEL. . . . . . . . .  C ADDR   00B0H   A   
ESPERANDO_RESPOSTA_ECHO. . . . . . . .  C ADDR   00ADH   A   
ESPERA_FLAG_MEDIR_DISTANCIA_2. . . . .  C ADDR   005BH   A   
ESPERA_TRIGGER_CALCULAR_DISTANCIA_INIT  C ADDR   0046H   A   
ET1. . . . . . . . . . . . . . . . . .  B ADDR   00A8H.3 A   
EX0. . . . . . . . . . . . . . . . . .  B ADDR   00A8H.0 A   
FIM. . . . . . . . . . . . . . . . . .  C ADDR   01ABH   A   
FINALIZA_TIMER_1 . . . . . . . . . . .  C ADDR   01A5H   A   
FLAG_CALCULAR_VELOCIDADE . . . . . . .  N NUMB   0038H   A   
FLAG_MEDIR_DISTANCIA_INIT. . . . . . .  N NUMB   0037H   A   
IE0. . . . . . . . . . . . . . . . . .  B ADDR   0088H.1 A   
INCREMENTA_TIMER_MEDICOES_LOW. . . . .  C ADDR   019CH   A   
INCREMENTA_TIMER_MEDICOES_LSB. . . . .  C ADDR   01A0H   A   
INT_CONFIGURA_INTERRUPCOES . . . . . .  C ADDR   0154H   A   
INT_EXT0 . . . . . . . . . . . . . . .  C ADDR   0163H   A   
INT_EXT1 . . . . . . . . . . . . . . .  C ADDR   0174H   A   
INT_SERIAL . . . . . . . . . . . . . .  C ADDR   01AAH   A   
INT_TIMER0 . . . . . . . . . . . . . .  C ADDR   0173H   A   
INT_TIMER1 . . . . . . . . . . . . . .  C ADDR   0175H   A   
IT1. . . . . . . . . . . . . . . . . .  B ADDR   0088H.2 A   
LED1 . . . . . . . . . . . . . . . . .  B ADDR   00B0H.7 A   
LED_SEG. . . . . . . . . . . . . . . .  B ADDR   00B0H.6 A   
MEDIR_DISTANCIA. . . . . . . . . . . .  C ADDR   0091H   A   
MOSTRA_VELOCIDADE_DISPLAY. . . . . . .  C ADDR   0111H   A   
P0 . . . . . . . . . . . . . . . . . .  D ADDR   0080H   A   
P1 . . . . . . . . . . . . . . . . . .  D ADDR   0090H   A   
P3 . . . . . . . . . . . . . . . . . .  D ADDR   00B0H   A   
PINO_LED_VERMELHO. . . . . . . . . . .  B ADDR   0090H.6 A   
PORT_DISPLAY . . . . . . . . . . . . .  D ADDR   0080H   A   
PSW. . . . . . . . . . . . . . . . . .  D ADDR   00D0H   A   
PT1. . . . . . . . . . . . . . . . . .  B ADDR   00B8H.3 A   
PX0. . . . . . . . . . . . . . . . . .  B ADDR   00B8H.0 A   
RESETA_TIMER_MEDICOES. . . . . . . . .  C ADDR   0084H   A   
SETA_VARIAVEIS_INICIAIS. . . . . . . .  C ADDR   006AH   A   
TAB7SEG. . . . . . . . . . . . . . . .  C ADDR   0030H   A   
TF0. . . . . . . . . . . . . . . . . .  B ADDR   0088H.5 A   
TF1. . . . . . . . . . . . . . . . . .  B ADDR   0088H.7 A   
TH0. . . . . . . . . . . . . . . . . .  D ADDR   008CH   A   
TH1. . . . . . . . . . . . . . . . . .  D ADDR   008DH   A   
TIMER_CONFIGURA_TIMER. . . . . . . . .  C ADDR   0119H   A   
TIMER_DELAY_10_US. . . . . . . . . . .  C ADDR   014AH   A   
TIMER_DELAY_1_MS . . . . . . . . . . .  C ADDR   014FH   A   
TIMER_DELAY_1_S. . . . . . . . . . . .  C ADDR   0143H   A   
TIMER_DELAY_20_MS. . . . . . . . . . .  C ADDR   012CH   A   
TIMER_MEDICOES_LOW . . . . . . . . . .  N NUMB   0043H   A   
A51 MACRO ASSEMBLER  PROJETO_02_LOMBADA_ELETRONICA                                        05/07/2017 19:44:45 PAGE    11

TIMER_MEDICOES_LSB . . . . . . . . . .  N NUMB   0044H   A   
TIMER_MEDICOES_MSB . . . . . . . . . .  N NUMB   0045H   A   
TIMER_SETA_VALORES_TIMER_PADRAO. . . .  C ADDR   0125H   A   
TL0. . . . . . . . . . . . . . . . . .  D ADDR   008AH   A   
TL1. . . . . . . . . . . . . . . . . .  D ADDR   008BH   A   
TMOD . . . . . . . . . . . . . . . . .  D ADDR   0089H   A   
TR0. . . . . . . . . . . . . . . . . .  B ADDR   0088H.4 A   
TR1. . . . . . . . . . . . . . . . . .  B ADDR   0088H.6 A   
TRIGGER_ULTRASSOM_ENVIO. . . . . . . .  B ADDR   00B0H.1 A   
TRIGGER_ULTRASSOM_RECEPTOR . . . . . .  B ADDR   00B0H.0 A   
VELOCIDADE_ACIMA_DO_LIMITE . . . . . .  C ADDR   010CH   A   
VELOCIDADE_LIMITE. . . . . . . . . . .  N NUMB   0042H   A   
VELOCIDADE_VEICULO . . . . . . . . . .  N NUMB   0041H   A   
VELOCIDADE_VEICULO_DEZENA. . . . . . .  N NUMB   0040H   A   
VELOCIDADE_VEICULO_UNIDADE . . . . . .  N NUMB   0039H   A   
__STARTUP__. . . . . . . . . . . . . .  C ADDR   0040H   A   


REGISTER BANK(S) USED: 0 


ASSEMBLY COMPLETE.  0 WARNING(S), 0 ERROR(S)
