A51 MACRO ASSEMBLER  PROJETO_01_FECHADURA                                                 03/25/2017 10:41:28 PAGE     1


MACRO ASSEMBLER A51 V8.2.5.0
OBJECT MODULE PLACED IN .\Objects\Projeto_01_Fechadura.obj
ASSEMBLER INVOKED BY: C:\Keil_v5\C51\BIN\A51.EXE Projeto_01_Fechadura.a51 SET(SMALL) DEBUG PRINT(.\Listings\Projeto_01_F
                      echadura.lst) OBJECT(.\Objects\Projeto_01_Fechadura.obj) EP

LOC  OBJ            LINE     SOURCE

                       1     

                       2     

                       3     

                       4     

                       5     

                       6     

                       7     

                       8     

                       9     

                      10     

                      11     

                      12     

                      13     

                      14     

                      15     

                      16     

2000                  17     org 2000h  

2000 0220A8           18     ljmp __STARTUP__

                      19     

2003                  20     org 2003h  

2003 022289           21     ljmp INT_INT0

                      22     

200B                  23     org 200Bh  

200B 02228A           24     ljmp INT_TIMER0

                      25     

2013                  26     org 2013h  

2013 02228B           27     ljmp INT_INT1

                      28     

201B                  29     org 201Bh  

201B 02228C           30     ljmp INT_TIMER1

                      31     

2023                  32     org 2023h  

2023 02228D           33     ljmp INT_SERIAL

                      34     

                      35     

                      36     

                      37     

                      38     

                      39     

  00A5                40     RS                      EQU     P2.5                     

  00A7                41     E_LCD           EQU     P2.7                     

  00A6                42     RW                      EQU     P2.6                     

  0087                43     BUSYF           EQU     P0.7                     

                      44     

                      45     

  00B7                46     LED1            EQU     P3.7

  00B6                47     LED_SEG         EQU     P3.6

                      48             

                      49     

  00B0                50     COL1            EQU P3.0

  00B1                51     COL2            EQU P3.1

  00B2                52     COL3            EQU P3.2

  00B3                53     COL4            EQU P3.3

                      54     

  00B4                55     LIN1            EQU P3.4

  00B5                56     LIN2            EQU P3.5

  00B6                57     LIN3            EQU P3.6

A51 MACRO ASSEMBLER  PROJETO_01_FECHADURA                                                 03/25/2017 10:41:28 PAGE     2

  00B7                58     LIN4            EQU P3.7

                      59             

                      60     

  0031                61     TECLADO_1       EQU 31h

  0032                62     TECLADO_2       EQU 32h

  0033                63     TECLADO_3       EQU 33h

  0034                64     TECLADO_4       EQU 34h

                      65             

                      66     

  0037                67     COUNTER         EQU 37h

                      68     

                      69     

  0041                70     SENHA1_1        EQU 41h

  0042                71     SENHA1_2        EQU 42h

  0043                72     SENHA1_3        EQU 43h

  0044                73     SENHA1_4        EQU 44h

                      74     

  0045                75     SENHA2_1        EQU 45h

  0046                76     SENHA2_2        EQU 46h

  0047                77     SENHA2_3        EQU 47h

  0048                78     SENHA2_4        EQU 48h

                      79     

  0049                80     TENTATIVAS  EQU 49h

                      81                     

                      82     

                      83     

                      84     

                      85     

2030                  86     org 2030h

2030                  87     SENHA_PADRAO_1:

2030 32383132         88                     db      '2812', 00H

2034 00                      
2035                  89     SENHA_PADRAO_2:

2035 30393132         90                     db      '0912', 00H

2039 00                      
203A                  91     STR_LOGO:

203A 2050524F         92             DB      ' PROFS. LINDOS! ',00H

203E 46532E20                
2042 4C494E44                
2046 4F532120                
204A 00                      
204B                  93     STR_LEONARDO_PEREIRA:

204B 4C656F6E         94             DB      'Leonardo Pereira',00H

204F 6172646F                
2053 20506572                
2057 65697261                
205B 00                      
205C                  95     STR_RODRIGO_ENDO:

205C 2020526F         96             DB      '  Rodrigo Endo  ',00H

2060 64726967                
2064 6F20456E                
2068 646F2020                
206C 00                      
206D                  97     STR_ENTER:

206D 50524553         98             DB      'PRESSIONE  ENTER',00H

2071 53494F4E                
2075 45202045                
2079 4E544552                
207D 00                      
207E                  99     STR_SENHA:

207E 53454E48        100             DB      'SENHA: ',00H

2082 413A2000                
2086                 101     STR_LIBERA:

2086 20504F52        102             DB      ' PORTA LIBERADA ',00H

208A 5441204C                
208E 49424552                
A51 MACRO ASSEMBLER  PROJETO_01_FECHADURA                                                 03/25/2017 10:41:28 PAGE     3

2092 41444120                
2096 00                      
2097                 103     STR_TRANCA:

2097 20504F52        104             DB      ' PORTA TRANCADA ',00H          

209B 54412054                
209F 52414E43                
20A3 41444120                
20A7 00                      
                     105                     

                     106     

                     107     

                     108     

                     109     

20A8                 110     __STARTUP__:

20A8 516A            111                     CALL    TIMER_CONFIGURA_TIMER

                     112     

20AA 902030          113                     MOV     DPTR, #2030h     

20AD 7800            114                     MOV     R0, #00h             

20AF 7941            115                     MOV     R1, #SENHA1_1    

20B1 7A04            116                     MOV     R2, #04h                 

20B3 3107            117                     CALL    LE_SENHA

                     118             

20B5 902035          119                     MOV     DPTR, #2035h     

20B8 7800            120                     MOV     R0, #00h                 

20BA 7945            121                     MOV     R1, #SENHA2_1    

20BC 7A04            122                     MOV     R2, #04h                 

20BE 3107            123                     CALL    LE_SENHA

                     124             

20C0 754903          125                     MOV     TENTATIVAS, #3h

                     126             

20C3                 127     MAIN:

20C3 31A6            128                     CALL    INIDISP  

20C5 90203A          129                     MOV     DPTR,#STR_LOGO   

20C8 514E            130                     CALL    ESC_STR1                 

                     131                     

                     132                     

20CA 7901            133                     MOV             R1, #01h

20CC 5182            134                     CALL    TIMER_DELAY_1_S

                     135                     

20CE 31EE            136                     CALL    CLR1L    

                     137                     

20D0 90204B          138                     MOV     DPTR, #STR_LEONARDO_PEREIRA      

20D3 514E            139                     CALL    ESC_STR1                                         

                     140                     

20D5 90205C          141                     MOV     DPTR, #STR_RODRIGO_ENDO          

20D8 5154            142                     CALL    ESC_STR2                                         

                     143                     

                     144                     

20DA 7901            145                     MOV             R1, #01h

20DC 5182            146                     CALL    TIMER_DELAY_1_S

                     147     

20DE                 148     LIMPA_LCD_E_INICIA_SISTEMA:

                     149                     

20DE 31EE            150                     CALL    CLR1L

20E0 5107            151                     CALL    CLR2L

                     152                     

20E2 90207E          153                     MOV     DPTR,#STR_SENHA  

20E5 514E            154                     CALL    ESC_STR1                 

                     155                     

20E7 7800            156                     MOV     R0, #00h         

20E9 7907            157                     MOV     R1, #07h         

20EB 31DC            158                     CALL    GOTOXY

                     159                     

20ED 7931            160                     MOV     R1, #TECLADO_1   

20EF 7B01            161                     MOV     R3, #1h                  

20F1 7F04            162                     MOV     R7, #04h                 

A51 MACRO ASSEMBLER  PROJETO_01_FECHADURA                                                 03/25/2017 10:41:28 PAGE     4

20F3                 163     LE_4_DIGITOS:

20F3 7805            164                     MOV     R0, #05h

20F5 516E            165                     ACALL   TIMER_DELAY_20_MS

20F7 3131            166                     ACALL   VARREDURA_TECLADO

20F9 3119            167                     CALL    ESCREVE_ASTERISCO

                     168                     

20FB 09              169                     INC R1

20FC 0B              170                     INC R3

                     171                     

20FD DFF4            172                     DJNZ R7, LE_4_DIGITOS

                     173                     

                     174                     

20FF 7805            175                     MOV     R0, #05h

2101 516E            176                     ACALL   TIMER_DELAY_20_MS

                     177                     

2103 311E            178                     ACALL   PRESS_ENT

                     179                     

2105 80D7            180                     JMP             LIMPA_LCD_E_INICIA_SISTEMA

                     181     

                     182     

                     183     

                     184     

                     185     

                     186     

                     187     

                     188     

                     189     

                     190     

                     191     

2107                 192     LE_SENHA:

2107 310D            193             call LE_SENHA_ROM

                     194             

2109 09              195             INC R1

                     196             

210A DAFB            197             djnz R2, LE_SENHA

                     198             

210C 22              199             RET

                     200     

210D                 201     LE_SENHA_ROM:

210D E8              202             mov A, R0

210E 93              203             movc A, @A + DPTR

210F F7              204             mov @R1, A

                     205             

2110 08              206             inc R0

                     207             

2111 3114            208             call CONV_ASCII_TO_NUMBER

                     209             

2113 22              210             RET

                     211             

                     212     

                     213     

                     214     

                     215     

                     216     

                     217     

                     218     

                     219     

2114                 220     CONV_ASCII_TO_NUMBER:

2114 E7              221                     MOV     A, @R1

                     222             

2115 24D0            223                     ADD     A, #-30h

                     224             

2117 F7              225                     MOV     @R1, A

                     226             

2118 22              227                     RET

                     228             

A51 MACRO ASSEMBLER  PROJETO_01_FECHADURA                                                 03/25/2017 10:41:28 PAGE     5

                     229     

                     230     

                     231     

                     232     

                     233     

                     234     

                     235     

2119                 236     ESCREVE_ASTERISCO:              

2119 742A            237                     MOV     A, #2Ah

211B 5120            238                     CALL    ESCDADO

                     239             

211D 22              240                     RET

                     241             

                     242     

211E                 243     PRESS_ENT:

211E D2B4            244                     SETB    LIN1

2120 D2B5            245                     SETB    LIN2

2122 D2B6            246                     SETB    LIN3

2124 C2B7            247                     CLR     LIN4

                     248                     

2126 30B102          249                     JNB     COL2, CLEAR                      

2129 80F3            250                     JMP     PRESS_ENT

                     251     

                     252     

                     253     

212B                 254     CLEAR: 

212B D0E0            255                     POP             ACC

212D D0E0            256                     POP             ACC

212F 80AD            257                     JMP     LIMPA_LCD_E_INICIA_SISTEMA

                     258     

                     259     

                     260     

                     261     

                     262     

                     263     

                     264     

                     265     

2131                 266     VARREDURA_TECLADO:

2131 C2B4            267                     CLR  LIN1

2133 D2B5            268                     SETB LIN2

2135 D2B6            269                     SETB LIN3

2137 D2B7            270                     SETB LIN4

2139 30B0DD          271                     JNB      COL1, ESCREVE_ASTERISCO

213C 802D            272                     JMP  DIGITO1 

213E 30B22E          273                     JNB  COL3, DIGITO2

2141 30B32F          274                     JNB  COL4, DIGITO3

                     275                     

2144 C2B5            276                     CLR  LIN2

2146 D2B4            277                     SETB LIN1

2148 30B12C          278                     JNB  COL2, DIGITO4

214B 30B22D          279                     JNB  COL3, DIGITO5

214E 30B32E          280                     JNB  COL4, DIGITO6

                     281                     

2151 C2B6            282                     CLR  LIN3

2153 D2B5            283                     SETB LIN2

2155 30B12B          284                     JNB  COL2, DIGITO7

2158 30B22C          285                     JNB  COL3, DIGITO8

215B 30B32D          286                     JNB  COL4, DIGITO9

                     287                     

215E C2B7            288                     CLR  LIN4

2160 D2B6            289                     SETB LIN3

2162 30B1B4          290                     JNB  COL2, ESCREVE_ASTERISCO

2165 30B227          291                     JNB  COL3, DIGITO0

2168 80C7            292                     JMP  VARREDURA_TECLADO

                     293                     

216A 22              294                     RET

A51 MACRO ASSEMBLER  PROJETO_01_FECHADURA                                                 03/25/2017 10:41:28 PAGE     6

                     295                     

                     296     

                     297     

                     298     

                     299     

                     300     

                     301     

                     302     

                     303     

216B 7401            304     DIGITO1: MOV A, #1h

216D 2193            305                      AJMP GRAVA_DIGITO

216F 7402            306     DIGITO2: MOV A, #2h

2171 2193            307                      AJMP GRAVA_DIGITO

2173 7403            308     DIGITO3: MOV A, #3h

2175 2193            309                      AJMP GRAVA_DIGITO

2177 7404            310     DIGITO4: MOV A, #4h

2179 2193            311                      AJMP GRAVA_DIGITO

217B 7405            312     DIGITO5: MOV A, #5h

217D 2193            313                      AJMP GRAVA_DIGITO

217F 7406            314     DIGITO6: MOV A, #6h

2181 2193            315                      AJMP GRAVA_DIGITO

2183 7407            316     DIGITO7: MOV A, #7h

2185 2193            317                      AJMP GRAVA_DIGITO

2187 7408            318     DIGITO8: MOV A, #8h

2189 2193            319                      AJMP GRAVA_DIGITO

218B 7409            320     DIGITO9: MOV A, #9h

218D 2193            321                      AJMP GRAVA_DIGITO

218F 7400            322     DIGITO0: MOV A, #0h

2191 2193            323                      AJMP GRAVA_DIGITO

                     324                      

2193                 325     GRAVA_DIGITO:

2193 BB0102          326                     CJNE R3, #1h, GRAVA_TECLADO_2

2196 F7              327                     MOV @R1, A

                     328             

2197 22              329                     RET

                     330                      

                     331     

                     332     

                     333     

                     334     

                     335     

                     336     

                     337     

2198 BB0202          338     GRAVA_TECLADO_2: CJNE R3, #2h, GRAVA_TECLADO_3

219B 21A4            339                                      AJMP GRAVA_TECLADO_X

219D BB0302          340     GRAVA_TECLADO_3: CJNE R3, #3h, GRAVA_TECLADO_4

21A0 21A4            341                                      AJMP GRAVA_TECLADO_X           

21A2 21A4            342     GRAVA_TECLADO_4: AJMP GRAVA_TECLADO_X

                     343     

21A4                 344     GRAVA_TECLADO_X:

21A4 F7              345                      MOV @R1, A

                     346                      

21A5 22              347                      RET

                     348     

                     349     

                     350     

                     351             

                     352     

                     353     

                     354     

                     355     

                     356     

                     357     

                     358     

                     359     

                     360     

A51 MACRO ASSEMBLER  PROJETO_01_FECHADURA                                                 03/25/2017 10:41:28 PAGE     7

21A6                 361     INIDISP:                       

21A6 7838            362             MOV     R0,#38H          

21A8 7A05            363             MOV     R2,#05           

21AA 31C5            364             CALL    ESCINST          

                     365             

21AC 7838            366                     MOV     R0,#38H          

21AE 7A01            367             MOV     R2,#01           

21B0 31C5            368             CALL    ESCINST          

                     369             

21B2 7806            370                     MOV     R0,#06H          

21B4 7A01            371             MOV     R2,#01           

21B6 31C5            372             CALL    ESCINST          

                     373             

21B8 780C            374                     MOV     R0,#0CH          

21BA 7A01            375             MOV     R2,#01           

21BC 31C5            376             CALL    ESCINST          

                     377             

21BE 7801            378                     MOV     R0,#01H          

21C0 7A02            379             MOV     R2,#02           

21C2 31C5            380             CALL    ESCINST          

                     381             

21C4 22              382                     RET

                     383                     

                     384     

                     385     

                     386     

                     387     

                     388     

                     389     

                     390     

                     391     

                     392     

21C5                 393     ESCINST:  

21C5 C2A6            394                     CLR             RW                               

21C7 C2A5            395                     CLR     RS               

21C9 D2A7            396                     SETB    E_LCD            

                     397                     

21CB 8880            398                     MOV     P0,R0            

                     399                     

21CD C2A7            400                     CLR     E_LCD            

                     401                     

21CF 7580FF          402                     MOV             P0,#0xFF                 

                     403                     

21D2 D2A6            404                     SETB    RW                               

21D4 D2A7            405                     SETB    E_LCD            

                     406     

21D6 2087FD          407     ESCI1:  JB      BUSYF,ESCI1                      

                     408                     

21D9 C2A7            409                     CLR     E_LCD            

                     410             

21DB 22              411                     RET

                     412                     

                     413     

                     414     

                     415     

                     416     

                     417     

                     418     

                     419     

                     420     

21DC                 421     GOTOXY: 

21DC C0E0            422                     PUSH    ACC

                     423             

21DE 7480            424                     MOV     A,#80H

21E0 B80102          425             CJNE    R0,#01,GT1       

                     426             

A51 MACRO ASSEMBLER  PROJETO_01_FECHADURA                                                 03/25/2017 10:41:28 PAGE     8

21E3 74C0            427                     MOV     A,#0C0H

                     428                     

21E5 49              429     GT1:    ORL     A,R1             

21E6 F8              430             MOV     R0,A

21E7 7A01            431             MOV     R2,#01           

                     432             

21E9 31C5            433                     CALL    ESCINST          

                     434             

21EB D0E0            435                     POP     ACC

                     436             

21ED 22              437                     RET

                     438             

                     439     

                     440     

                     441     

                     442     

                     443     

                     444     

                     445     

                     446     

21EE                 447     CLR1L:    

21EE C0E0            448             PUSH   ACC

                     449             

21F0 7800            450                     MOV    R0,#00               

21F2 7900            451             MOV    R1,#00

                     452             

21F4 31DC            453                     CALL   GOTOXY

                     454             

21F6 7910            455                     MOV    R1,#16               

                     456     

21F8 7420            457     CLR1L1: MOV    A,#' '               

                     458             

21FA 5120            459                     CALL   ESCDADO

                     460             

21FC D9FA            461                     DJNZ   R1,CLR1L1

21FE 7800            462             MOV    R0,#00               

2200 7900            463             MOV    R1,#00

                     464             

2202 31DC            465                     CALL   GOTOXY

                     466             

2204 D0E0            467                     POP    ACC

                     468             

2206 22              469                     RET

                     470                     

                     471     

                     472     

                     473     

                     474     

                     475     

                     476     

                     477     

                     478     

2207                 479     CLR2L:    

2207 C0E0            480             PUSH   ACC

                     481             

2209 7801            482                     MOV    R0,#01               

220B 7900            483             MOV    R1,#00

                     484             

220D 31DC            485                     CALL   GOTOXY

                     486             

220F 7910            487                     MOV    R1,#16               

                     488     

2211 7420            489     CLR2L1: MOV    A,#' '               

                     490             

2213 5120            491                     CALL   ESCDADO

                     492             

A51 MACRO ASSEMBLER  PROJETO_01_FECHADURA                                                 03/25/2017 10:41:28 PAGE     9

2215 D9FA            493                     DJNZ   R1,CLR2L1

2217 7801            494             MOV    R0,#01               

2219 7900            495             MOV    R1,#00

                     496             

221B 31DC            497                     CALL   GOTOXY

                     498             

221D D0E0            499                     POP    ACC

                     500             

221F 22              501                     RET

                     502                

                     503     

                     504     

                     505     

                     506     

                     507     

                     508     

                     509     

2220                 510     ESCDADO:  

2220 C2A6            511                     CLR             RW                               

2222 D2A5            512             SETB    RS               

2224 D2A7            513             SETB    E_LCD            

                     514                     

2226 F580            515             MOV     P0,A             

                     516             

2228 C2A7            517                     CLR     E_LCD            

                     518                     

222A 7580FF          519                     MOV             P0,#0xFF                 

                     520                     

222D D2A6            521                     SETB    RW                               

222F C2A5            522                     CLR             RS                               

2231 D2A7            523                     SETB    E_LCD            

                     524     

2233 2087FD          525     ESCD1:  JB              BUSYF,ESCD1              

                     526     

2236 C2A7            527                     CLR     E_LCD            

                     528     

2238 22              529             RET

                     530                     

                     531     

                     532     

                     533     

                     534     

                     535     

                     536     

                     537     

                     538     

                     539     

2239                 540     MSTRING:  

2239 E4              541                       CLR    A

223A 93              542               MOVC   A,@A+DPTR       

                     543               

223B 6006            544                       JZ     MSTR1

                     545               

223D 122220          546                       LCALL  ESCDADO         

                     547               

2240 A3              548                       INC    DPTR

                     549               

2241 80F6            550                       SJMP   MSTRING

                     551                       

2243 22              552     MSTR1:    RET

                     553                

                     554     

                     555     

                     556     

                     557     

                     558     

A51 MACRO ASSEMBLER  PROJETO_01_FECHADURA                                                 03/25/2017 10:41:28 PAGE    10

                     559     

                     560     

                     561     

                     562     

2244                 563     MSTRINGX: 

2244 E0              564                       MOVX   A,@DPTR         

                     565               

2245 6006            566                       JZ     MSTR21

                     567               

2247 122220          568                       LCALL  ESCDADO         

                     569               

224A A3              570                       INC    DPTR

                     571               

224B 80F7            572                       SJMP   MSTRINGX

                     573     

224D 22              574     MSTR21:   RET

                     575     

                     576     

                     577     

                     578     

                     579     

                     580     

                     581     

                     582     

                     583     

                     584     

224E                 585     ESC_STR1: 

                     586                       

224E 7800            587                       MOV    R0,#00         

2250 7900            588               MOV    R1,#00

                     589               

2252 8004            590                       JMP    ESC_S

                     591               

                     592     

                     593     

                     594     

                     595     

                     596     

                     597     

                     598     

                     599     

                     600     

2254                 601     ESC_STR2: 

                     602                       

2254 7801            603                       MOV    R0,#01         

2256 7900            604               MOV    R1,#00

                     605                       

2258 1221DC          606     ESC_S:    LCALL  GOTOXY          

                     607               

225B 122239          608                       LCALL  MSTRING

                     609               

225E 22              610                       RET

                     611     

                     612     

                     613     

                     614     

                     615     

                     616     

                     617     

                     618     ; DESTROI: R0,R2                                                                        //

                     619     

225F                 620     CUR_ON:   

225F 780F            621                       MOV    R0,#0FH               

2261 8002            622               SJMP   CUR1

                     623                       

2263                 624     CUR_OFF:  

A51 MACRO ASSEMBLER  PROJETO_01_FECHADURA                                                 03/25/2017 10:41:28 PAGE    11

2263 780C            625                       MOV    R0,#0CH               

                     626                       

2265 7A01            627     CUR1:     MOV    R2,#01

                     628               

2267 31C5            629                       CALL   ESCINST               

                     630               

2269 22              631                       RET

                     632                       

                     633     

                     634     

                     635     

                     636                       

226A                 637     TIMER_CONFIGURA_TIMER:

226A 758901          638                     MOV TMOD, #01h  

                     639             

226D 22              640                     RET

                     641             

                     642     

                     643     

                     644     

                     645     

                     646     

                     647     

                     648     

226E                 649     TIMER_DELAY_20_MS:

226E 758C2F          650                     MOV TH0, #HIGH(65535 - 53350)

2271 758A99          651                     MOV TL0, #LOW(65535 - 53350)

                     652             

2274 C28D            653                     CLR TF0

2276 D28C            654                     SETB TR0

                     655             

2278 308DFD          656                     JNB TF0, $

                     657                     

227B C28D            658                     CLR TF0

227D C28C            659                     CLR TR0

                     660             

227F D8ED            661                     DJNZ R0, TIMER_DELAY_20_MS

                     662             

2281 22              663                     RET

                     664             

                     665     

                     666     

                     667     

                     668     

                     669     

                     670     

                     671     

2282                 672     TIMER_DELAY_1_S:

2282 7832            673                     MOV             R0, #50d

2284 516E            674                     CALL    TIMER_DELAY_20_MS

                     675                     

2286 D9FA            676                     DJNZ    R1, TIMER_DELAY_1_S

                     677             

2288 22              678                     RET

                     679     

                     680     

                     681     

                     682     

                     683     

                     684     

                     685     

                     686     

2289                 687     INT_INT0:

2289 32              688                     RETI

                     689     

                     690     

A51 MACRO ASSEMBLER  PROJETO_01_FECHADURA                                                 03/25/2017 10:41:28 PAGE    12

                     691     

                     692     

228A                 693     INT_TIMER0:

228A 32              694                     RETI

                     695             

                     696     

                     697     

                     698     

228B                 699     INT_INT1:

228B 32              700                     RETI

                     701     

                     702     

                     703     

                     704     

228C                 705     INT_TIMER1:

228C 32              706                     RETI

                     707             

                     708     

                     709     

                     710     

228D                 711     INT_SERIAL:

228D 32              712                     RETI

                     713             

228E                 714     FIM:

                     715                     END

A51 MACRO ASSEMBLER  PROJETO_01_FECHADURA                                                 03/25/2017 10:41:28 PAGE    13

SYMBOL TABLE LISTING
------ ----- -------


N A M E                     T Y P E  V A L U E   ATTRIBUTES

ACC. . . . . . . . . . . .  D ADDR   00E0H   A   
BUSYF. . . . . . . . . . .  B ADDR   0080H.7 A   
CLEAR. . . . . . . . . . .  C ADDR   212BH   A   
CLR1L. . . . . . . . . . .  C ADDR   21EEH   A   
CLR1L1 . . . . . . . . . .  C ADDR   21F8H   A   
CLR2L. . . . . . . . . . .  C ADDR   2207H   A   
CLR2L1 . . . . . . . . . .  C ADDR   2211H   A   
COL1 . . . . . . . . . . .  B ADDR   00B0H.0 A   
COL2 . . . . . . . . . . .  B ADDR   00B0H.1 A   
COL3 . . . . . . . . . . .  B ADDR   00B0H.2 A   
COL4 . . . . . . . . . . .  B ADDR   00B0H.3 A   
CONV_ASCII_TO_NUMBER . . .  C ADDR   2114H   A   
COUNTER. . . . . . . . . .  N NUMB   0037H   A   
CUR1 . . . . . . . . . . .  C ADDR   2265H   A   
CUR_OFF. . . . . . . . . .  C ADDR   2263H   A   
CUR_ON . . . . . . . . . .  C ADDR   225FH   A   
DIGITO0. . . . . . . . . .  C ADDR   218FH   A   
DIGITO1. . . . . . . . . .  C ADDR   216BH   A   
DIGITO2. . . . . . . . . .  C ADDR   216FH   A   
DIGITO3. . . . . . . . . .  C ADDR   2173H   A   
DIGITO4. . . . . . . . . .  C ADDR   2177H   A   
DIGITO5. . . . . . . . . .  C ADDR   217BH   A   
DIGITO6. . . . . . . . . .  C ADDR   217FH   A   
DIGITO7. . . . . . . . . .  C ADDR   2183H   A   
DIGITO8. . . . . . . . . .  C ADDR   2187H   A   
DIGITO9. . . . . . . . . .  C ADDR   218BH   A   
ESCD1. . . . . . . . . . .  C ADDR   2233H   A   
ESCDADO. . . . . . . . . .  C ADDR   2220H   A   
ESCI1. . . . . . . . . . .  C ADDR   21D6H   A   
ESCINST. . . . . . . . . .  C ADDR   21C5H   A   
ESCREVE_ASTERISCO. . . . .  C ADDR   2119H   A   
ESC_S. . . . . . . . . . .  C ADDR   2258H   A   
ESC_STR1 . . . . . . . . .  C ADDR   224EH   A   
ESC_STR2 . . . . . . . . .  C ADDR   2254H   A   
E_LCD. . . . . . . . . . .  B ADDR   00A0H.7 A   
FIM. . . . . . . . . . . .  C ADDR   228EH   A   
GOTOXY . . . . . . . . . .  C ADDR   21DCH   A   
GRAVA_DIGITO . . . . . . .  C ADDR   2193H   A   
GRAVA_TECLADO_2. . . . . .  C ADDR   2198H   A   
GRAVA_TECLADO_3. . . . . .  C ADDR   219DH   A   
GRAVA_TECLADO_4. . . . . .  C ADDR   21A2H   A   
GRAVA_TECLADO_X. . . . . .  C ADDR   21A4H   A   
GT1. . . . . . . . . . . .  C ADDR   21E5H   A   
INIDISP. . . . . . . . . .  C ADDR   21A6H   A   
INT_INT0 . . . . . . . . .  C ADDR   2289H   A   
INT_INT1 . . . . . . . . .  C ADDR   228BH   A   
INT_SERIAL . . . . . . . .  C ADDR   228DH   A   
INT_TIMER0 . . . . . . . .  C ADDR   228AH   A   
INT_TIMER1 . . . . . . . .  C ADDR   228CH   A   
LED1 . . . . . . . . . . .  B ADDR   00B0H.7 A   
LED_SEG. . . . . . . . . .  B ADDR   00B0H.6 A   
LE_4_DIGITOS . . . . . . .  C ADDR   20F3H   A   
LE_SENHA . . . . . . . . .  C ADDR   2107H   A   
LE_SENHA_ROM . . . . . . .  C ADDR   210DH   A   
LIMPA_LCD_E_INICIA_SISTEMA  C ADDR   20DEH   A   
LIN1 . . . . . . . . . . .  B ADDR   00B0H.4 A   
LIN2 . . . . . . . . . . .  B ADDR   00B0H.5 A   
LIN3 . . . . . . . . . . .  B ADDR   00B0H.6 A   
LIN4 . . . . . . . . . . .  B ADDR   00B0H.7 A   
MAIN . . . . . . . . . . .  C ADDR   20C3H   A   
A51 MACRO ASSEMBLER  PROJETO_01_FECHADURA                                                 03/25/2017 10:41:28 PAGE    14

MSTR1. . . . . . . . . . .  C ADDR   2243H   A   
MSTR21 . . . . . . . . . .  C ADDR   224DH   A   
MSTRING. . . . . . . . . .  C ADDR   2239H   A   
MSTRINGX . . . . . . . . .  C ADDR   2244H   A   
P0 . . . . . . . . . . . .  D ADDR   0080H   A   
P2 . . . . . . . . . . . .  D ADDR   00A0H   A   
P3 . . . . . . . . . . . .  D ADDR   00B0H   A   
PRESS_ENT. . . . . . . . .  C ADDR   211EH   A   
RS . . . . . . . . . . . .  B ADDR   00A0H.5 A   
RW . . . . . . . . . . . .  B ADDR   00A0H.6 A   
SENHA1_1 . . . . . . . . .  N NUMB   0041H   A   
SENHA1_2 . . . . . . . . .  N NUMB   0042H   A   
SENHA1_3 . . . . . . . . .  N NUMB   0043H   A   
SENHA1_4 . . . . . . . . .  N NUMB   0044H   A   
SENHA2_1 . . . . . . . . .  N NUMB   0045H   A   
SENHA2_2 . . . . . . . . .  N NUMB   0046H   A   
SENHA2_3 . . . . . . . . .  N NUMB   0047H   A   
SENHA2_4 . . . . . . . . .  N NUMB   0048H   A   
SENHA_PADRAO_1 . . . . . .  C ADDR   2030H   A   
SENHA_PADRAO_2 . . . . . .  C ADDR   2035H   A   
STR_ENTER. . . . . . . . .  C ADDR   206DH   A   
STR_LEONARDO_PEREIRA . . .  C ADDR   204BH   A   
STR_LIBERA . . . . . . . .  C ADDR   2086H   A   
STR_LOGO . . . . . . . . .  C ADDR   203AH   A   
STR_RODRIGO_ENDO . . . . .  C ADDR   205CH   A   
STR_SENHA. . . . . . . . .  C ADDR   207EH   A   
STR_TRANCA . . . . . . . .  C ADDR   2097H   A   
TECLADO_1. . . . . . . . .  N NUMB   0031H   A   
TECLADO_2. . . . . . . . .  N NUMB   0032H   A   
TECLADO_3. . . . . . . . .  N NUMB   0033H   A   
TECLADO_4. . . . . . . . .  N NUMB   0034H   A   
TENTATIVAS . . . . . . . .  N NUMB   0049H   A   
TF0. . . . . . . . . . . .  B ADDR   0088H.5 A   
TH0. . . . . . . . . . . .  D ADDR   008CH   A   
TIMER_CONFIGURA_TIMER. . .  C ADDR   226AH   A   
TIMER_DELAY_1_S. . . . . .  C ADDR   2282H   A   
TIMER_DELAY_20_MS. . . . .  C ADDR   226EH   A   
TL0. . . . . . . . . . . .  D ADDR   008AH   A   
TMOD . . . . . . . . . . .  D ADDR   0089H   A   
TR0. . . . . . . . . . . .  B ADDR   0088H.4 A   
VARREDURA_TECLADO. . . . .  C ADDR   2131H   A   
__STARTUP__. . . . . . . .  C ADDR   20A8H   A   


REGISTER BANK(S) USED: 0 


ASSEMBLY COMPLETE.  0 WARNING(S), 0 ERROR(S)
