A51 MACRO ASSEMBLER  PROJETO_01_FECHADURA                                                 03/25/2017 10:04:16 PAGE     1


MACRO ASSEMBLER A51 V8.2.5.0
OBJECT MODULE PLACED IN .\Objects\Projeto_01_Fechadura.obj
ASSEMBLER INVOKED BY: C:\Keil_v5\C51\BIN\A51.EXE Projeto_01_Fechadura.a51 SET(SMALL) DEBUG PRINT(.\Listings\Projeto_01_F
                      echadura.lst) OBJECT(.\Objects\Projeto_01_Fechadura.obj) EP

LOC  OBJ            LINE     SOURCE

                       1     

                       2     

                       3     

                       4     

                       5     

                       6     

                       7     

                       8     

                       9     

                      10     

                      11     

                      12     

                      13     

                      14     

                      15     

                      16     

2000                  17     org 2000h  

2000 0220B9           18     ljmp __STARTUP__

                      19     

2003                  20     org 2003h  

2003 02227F           21     ljmp INT_INT0

                      22     

200B                  23     org 200Bh  

200B 022280           24     ljmp INT_TIMER0

                      25     

2013                  26     org 2013h  

2013 022281           27     ljmp INT_INT1

                      28     

201B                  29     org 201Bh  

201B 022282           30     ljmp INT_TIMER1

                      31     

2023                  32     org 2023h  

2023 022283           33     ljmp INT_SERIAL

                      34     

                      35     

                      36     

                      37     

                      38     

                      39     

  00A5                40     RS                      EQU     P2.5                     

  00A7                41     E_LCD           EQU     P2.7                     

  00A6                42     RW                      EQU     P2.6                     

  0087                43     BUSYF           EQU     P0.7                     

                      44     

                      45     

  00B7                46     LED1            EQU     P3.7

  00B6                47     LED_SEG         EQU     P3.6

                      48             

                      49     

  00B0                50     COL1            EQU P3.0

  00B1                51     COL2            EQU P3.1

  00B2                52     COL3            EQU P3.2

  00B3                53     COL4            EQU P3.3

                      54     

  00B4                55     LIN1            EQU P3.4

  00B5                56     LIN2            EQU P3.5

  00B6                57     LIN3            EQU P3.6

A51 MACRO ASSEMBLER  PROJETO_01_FECHADURA                                                 03/25/2017 10:04:16 PAGE     2

  00B7                58     LIN4            EQU P3.7

                      59             

                      60     

  0031                61     TECLADO_1       EQU 31h

  0032                62     TECLADO_2       EQU 32h

  0033                63     TECLADO_3       EQU 33h

  0034                64     TECLADO_4       EQU 34h

                      65             

                      66     

  0037                67     COUNTER         EQU 37h

                      68     

                      69     

  0041                70     SENHA1_1        EQU 41h

  0042                71     SENHA1_2        EQU 42h

  0043                72     SENHA1_3        EQU 43h

  0044                73     SENHA1_4        EQU 44h

                      74     

  0045                75     SENHA2_1        EQU 45h

  0046                76     SENHA2_2        EQU 46h

  0047                77     SENHA2_3        EQU 47h

  0048                78     SENHA2_4        EQU 48h

                      79     

  0049                80     TENTATIVAS  EQU 49h

                      81                     

                      82     

                      83     

                      84     

                      85     

2030                  86     org 2030h

2030                  87     SENHA_PADRAO_1:

2030 32383132         88                     db      '2812', 00H

2034 00                      
2035                  89     SENHA_PADRAO_2:

2035 30393132         90                     db      '0912', 00H

2039 00                      
203A                  91     STR_LOGO:

203A 2050524F         92             DB      ' PROFS. LINDOS! ',00H

203E 46532E20                
2042 4C494E44                
2046 4F532120                
204A 00                      
204B                  93     STR_LEONARDO_PEREIRA:

204B 4C656F6E         94             DB      'Leonardo Pereira',00H

204F 6172646F                
2053 20506572                
2057 65697261                
205B 00                      
205C                  95     STR_RODRIGO_ENDO:

205C 2020526F         96             DB      '  Rodrigo Endo  ',00H

2060 64726967                
2064 6F20456E                
2068 646F2020                
206C 00                      
206D                  97     STR_ENTER:

206D 50524553         98             DB      'PRESSIONE  ENTER',00H

2071 53494F4E                
2075 45202045                
2079 4E544552                
207D 00                      
207E                  99     STR_SENHA:

207E 53454E48        100             DB      'SENHA: ',00H

2082 413A2000                
2086                 101     STR_LIBERA:

2086 20504F52        102             DB      ' PORTA LIBERADA ',00H

208A 5441204C                
208E 49424552                
A51 MACRO ASSEMBLER  PROJETO_01_FECHADURA                                                 03/25/2017 10:04:16 PAGE     3

2092 41444120                
2096 00                      
2097                 103     STR_TRANCA:

2097 20504F52        104             DB      ' PORTA TRANCADA ',00H          

209B 54412054                
209F 52414E43                
20A3 41444120                
20A7 00                      
                     105     

20A8                 106     STR_ERRO:

20A8 53454E48        107             DB      'SENHA NECESSARIA',00H

20AC 41204E45                
20B0 43455353                
20B4 41524941                
20B8 00                      
                     108                     

                     109     

                     110     

                     111     

                     112     

20B9                 113     __STARTUP__:

20B9 5160            114             CALL    TIMER_CONFIGURA_TIMER

                     115     

20BB 902030          116             mov     DPTR, #2030h     

20BE 7800            117             mov     R0, #00h             

20C0 7941            118             mov     R1, #SENHA1_1    

20C2 7A04            119             mov     R2, #04h                 

20C4 3112            120             CALL    LE_SENHA

                     121             

20C6 902035          122             mov     DPTR, #2035h     

20C9 7800            123             mov     R0, #00h                 

20CB 7945            124             mov     R1, #SENHA2_1    

20CD 7A04            125             mov     R2, #04h                 

20CF 3112            126             CALL    LE_SENHA

                     127             

20D1 754903          128             MOV TENTATIVAS, #3h

                     129             

                     130     

20D4                 131     MAIN:

20D4 319C            132                     CALL    INIDISP  

20D6 90203A          133                     MOV     DPTR,#STR_LOGO   

20D9 5144            134                     CALL    ESC_STR1                 

                     135                     

                     136                     

20DB 7901            137                     MOV             R1, #01h

20DD 5178            138                     CALL    TIMER_DELAY_1_S

                     139                     

20DF 31E4            140                     CALL    CLR1L    

                     141                     

20E1 90204B          142                     MOV     DPTR, #STR_LEONARDO_PEREIRA      

20E4 5144            143                     CALL    ESC_STR1                                         

                     144                     

20E6 90205C          145                     MOV     DPTR, #STR_RODRIGO_ENDO          

20E9 514A            146                     CALL    ESC_STR2                                         

                     147                     

                     148                     

20EB 7901            149                     MOV             R1, #01h

20ED 5178            150                     CALL    TIMER_DELAY_1_S

                     151                     

                     152                     

20EF 31E4            153                     CALL    CLR1L

20F1 31FD            154                     CALL    CLR2L

                     155                     

20F3 90207E          156                     MOV     DPTR,#STR_SENHA  

20F6 5144            157                     CALL    ESC_STR1                 

                     158                     

A51 MACRO ASSEMBLER  PROJETO_01_FECHADURA                                                 03/25/2017 10:04:16 PAGE     4

20F8 7800            159                     MOV     R0, #00h         

20FA 7907            160                     MOV     R1, #07h         

20FC 31D2            161                     CALL    GOTOXY

                     162                     

20FE 7931            163                     MOV     R1, #TECLADO_1

2100 7B01            164                     MOV     R3, #1h

2102 7F04            165                     MOV     R7, #04h

2104                 166     LE_4_DIGITOS:

2104 7805            167                     MOV     R0, #05h

2106 5164            168                     ACALL   TIMER_DELAY_20_MS

2108 3129            169                     ACALL   VARREDURA_TECLADO

210A 3124            170                     CALL    ESCREVE_ASTERISCO

                     171                     

210C 09              172                     INC R1

210D 0B              173                     INC R3

                     174                     

210E DFF4            175                     DJNZ R7, LE_4_DIGITOS

                     176                     

2110 4184            177                     JMP             FIM

                     178             

                     179     

                     180     

                     181     

                     182     

                     183     

                     184     

                     185     

                     186     

                     187     

                     188     

2112                 189     LE_SENHA:

2112 3118            190             call LE_SENHA_ROM

                     191             

2114 09              192             INC R1

                     193             

2115 DAFB            194             djnz R2, LE_SENHA

                     195             

2117 22              196             RET

                     197     

2118                 198     LE_SENHA_ROM:

2118 E8              199             mov A, R0

2119 93              200             movc A, @A + DPTR

211A F7              201             mov @R1, A

                     202             

211B 08              203             inc R0

                     204             

211C 311F            205             call CONV_ASCII_TO_NUMBER

                     206             

211E 22              207             RET

                     208             

                     209     

                     210     

                     211     

                     212     

                     213     

                     214     

                     215     

                     216     

211F                 217     CONV_ASCII_TO_NUMBER:

211F E7              218             mov A, @R1

                     219             

2120 24D0            220             ADD A, #-30h

                     221             

2122 F7              222             mov @R1, A

                     223             

2123 22              224             RET

A51 MACRO ASSEMBLER  PROJETO_01_FECHADURA                                                 03/25/2017 10:04:16 PAGE     5

                     225             

                     226     

                     227     

                     228     

                     229     

                     230     

                     231     

                     232     

2124                 233     ESCREVE_ASTERISCO:              

2124 742A            234             MOV     A, #2Ah

2126 5116            235             CALL    ESCDADO

                     236             

2128 22              237             RET

                     238     

                     239     ;Varredura de teclado para as senhas normais

2129                 240     VARREDURA_TECLADO:

2129 C2B4            241                     CLR  LIN1

212B D2B5            242                     SETB LIN2

212D D2B6            243                     SETB LIN3

212F D2B7            244                     SETB LIN4

2131 30B0F0          245                     JNB      COL1, ESCREVE_ASTERISCO

2134 802D            246                     JMP  DIGITO1 

2136 30B22E          247                     JNB  COL3, DIGITO2

2139 30B32F          248                     JNB  COL4, DIGITO3

                     249                     

213C C2B5            250                     CLR  LIN2

213E D2B4            251                     SETB LIN1

2140 30B12C          252                     JNB  COL2, DIGITO4

2143 30B22D          253                     JNB  COL3, DIGITO5

2146 30B32E          254                     JNB  COL4, DIGITO6

                     255                     

2149 C2B6            256                     CLR  LIN3

214B D2B5            257                     SETB LIN2

214D 30B12B          258                     JNB  COL2, DIGITO7

2150 30B22C          259                     JNB  COL3, DIGITO8

2153 30B32D          260                     JNB  COL4, DIGITO9

                     261                     

2156 C2B7            262                     CLR  LIN4

2158 D2B6            263                     SETB LIN3

215A 30B1C7          264                     JNB  COL2, ESCREVE_ASTERISCO

215D 30B227          265                     JNB  COL3, DIGITO0

2160 80C7            266                     JMP  VARREDURA_TECLADO

                     267                     

2162 22              268                     RET

                     269                     

                     270     

                     271     

                     272     

                     273     

                     274     

                     275     

                     276     

                     277     

2163 7401            278     DIGITO1: MOV A, #1h

2165 218B            279                      AJMP GRAVA_DIGITO

2167 7402            280     DIGITO2: MOV A, #2h

2169 218B            281                      AJMP GRAVA_DIGITO

216B 7403            282     DIGITO3: MOV A, #3h

216D 218B            283                      AJMP GRAVA_DIGITO

216F 7404            284     DIGITO4: MOV A, #4h

2171 218B            285                      AJMP GRAVA_DIGITO

2173 7405            286     DIGITO5: MOV A, #5h

2175 218B            287                      AJMP GRAVA_DIGITO

2177 7406            288     DIGITO6: MOV A, #6h

2179 218B            289                      AJMP GRAVA_DIGITO

217B 7407            290     DIGITO7: MOV A, #7h

A51 MACRO ASSEMBLER  PROJETO_01_FECHADURA                                                 03/25/2017 10:04:16 PAGE     6

217D 218B            291                      AJMP GRAVA_DIGITO

217F 7408            292     DIGITO8: MOV A, #8h

2181 218B            293                      AJMP GRAVA_DIGITO

2183 7409            294     DIGITO9: MOV A, #9h

2185 218B            295                      AJMP GRAVA_DIGITO

2187 7400            296     DIGITO0: MOV A, #0h

2189 218B            297                      AJMP GRAVA_DIGITO

                     298                      

218B                 299     GRAVA_DIGITO:

218B BB0102          300                     CJNE R3, #1h, GRAVA_TECLADO_2

218E F7              301                     MOV @R1, A

                     302             

218F 22              303                     RET

                     304                      

                     305     ;***************************************************************************

                     306     ;NOME: GRAVA_TECLADO_2

                     307     ;DESCRICAO: Grava o valor de R1 e no dígito 2 do teclado

                     308     ;ENTRADA: R1

                     309     ;SAIDA: TECLADO_2

                     310     ;DESTROI: 

2190                 311     GRAVA_TECLADO_2: 

2190 BB0202          312                                      CJNE R3, #2h, GRAVA_TECLADO_3

2193 F7              313                                      MOV @R1, A

2194 22              314                                      RET

                     315     ;***************************************************************************

                     316     ;NOME: GRAVA_TECLADO_3

                     317     ;DESCRICAO: Grava o valor de R1 e no dígito 3 do teclado

                     318     ;ENTRADA: R1

                     319     ;SAIDA: TECLADO_3

                     320     ;DESTROI: 

2195 BB0302          321     GRAVA_TECLADO_3: CJNE R3, #3h, GRAVA_TECLADO_4

2198 F7              322                                      MOV @R1, A

2199 22              323                                      RET            

                     324     ;***************************************************************************

                     325     ;NOME: GRAVA_TECLADO_4

                     326     ;DESCRICAO: Grava o valor de R1 e no dígito 4 do teclado

                     327     ;ENTRADA: R1

                     328     ;SAIDA: TECLADO_4

                     329     ;DESTROI: 

219A F7              330     GRAVA_TECLADO_4: MOV @R1, A

219B 22              331                                      RET

                     332     

                     333     

                     334     

                     335     

                     336             

                     337     

                     338     

                     339     

                     340     

                     341     

                     342     

                     343     

                     344     

                     345     

219C                 346     INIDISP:                       

219C 7838            347             MOV     R0,#38H          

219E 7A05            348             MOV     R2,#05           

21A0 31BB            349             CALL    ESCINST          

                     350             

21A2 7838            351                     MOV     R0,#38H          

21A4 7A01            352             MOV     R2,#01           

21A6 31BB            353             CALL    ESCINST          

                     354             

21A8 7806            355                     MOV     R0,#06H          

21AA 7A01            356             MOV     R2,#01           

A51 MACRO ASSEMBLER  PROJETO_01_FECHADURA                                                 03/25/2017 10:04:16 PAGE     7

21AC 31BB            357             CALL    ESCINST          

                     358             

21AE 780C            359                     MOV     R0,#0CH          

21B0 7A01            360             MOV     R2,#01           

21B2 31BB            361             CALL    ESCINST          

                     362             

21B4 7801            363                     MOV     R0,#01H          

21B6 7A02            364             MOV     R2,#02           

21B8 31BB            365             CALL    ESCINST          

                     366             

21BA 22              367                     RET

                     368                     

                     369     

                     370     

                     371     

                     372     

                     373     

                     374     

                     375     

                     376     

                     377     

21BB                 378     ESCINST:  

21BB C2A6            379                     CLR             RW                               

21BD C2A5            380                     CLR     RS               

21BF D2A7            381                     SETB    E_LCD            

                     382                     

21C1 8880            383                     MOV     P0,R0            

                     384                     

21C3 C2A7            385                     CLR     E_LCD            

                     386                     

21C5 7580FF          387                     MOV             P0,#0xFF                 

                     388                     

21C8 D2A6            389                     SETB    RW                               

21CA D2A7            390                     SETB    E_LCD            

                     391     

21CC 2087FD          392     ESCI1:  JB      BUSYF,ESCI1                      

                     393                     

21CF C2A7            394                     CLR     E_LCD            

                     395             

21D1 22              396                     RET

                     397                     

                     398     

                     399     

                     400     

                     401     

                     402     

                     403     

                     404     

                     405     

21D2                 406     GOTOXY: 

21D2 C0E0            407                     PUSH    ACC

                     408             

21D4 7480            409                     MOV     A,#80H

21D6 B80102          410             CJNE    R0,#01,GT1       

                     411             

21D9 74C0            412                     MOV     A,#0C0H

                     413                     

21DB 49              414     GT1:    ORL     A,R1             

21DC F8              415             MOV     R0,A

21DD 7A01            416             MOV     R2,#01           

                     417             

21DF 31BB            418                     CALL    ESCINST          

                     419             

21E1 D0E0            420                     POP     ACC

                     421             

21E3 22              422                     RET

A51 MACRO ASSEMBLER  PROJETO_01_FECHADURA                                                 03/25/2017 10:04:16 PAGE     8

                     423             

                     424     

                     425     

                     426     

                     427     

                     428     

                     429     

                     430     

                     431     

21E4                 432     CLR1L:    

21E4 C0E0            433             PUSH   ACC

                     434             

21E6 7800            435                     MOV    R0,#00               

21E8 7900            436             MOV    R1,#00

                     437             

21EA 31D2            438                     CALL   GOTOXY

                     439             

21EC 7910            440                     MOV    R1,#16               

                     441     

21EE 7420            442     CLR1L1: MOV    A,#' '               

                     443             

21F0 5116            444                     CALL   ESCDADO

                     445             

21F2 D9FA            446                     DJNZ   R1,CLR1L1

21F4 7800            447             MOV    R0,#00               

21F6 7900            448             MOV    R1,#00

                     449             

21F8 31D2            450                     CALL   GOTOXY

                     451             

21FA D0E0            452                     POP    ACC

                     453             

21FC 22              454                     RET

                     455                     

                     456     

                     457     

                     458     

                     459     

                     460     

                     461     

                     462     

                     463     

21FD                 464     CLR2L:    

21FD C0E0            465             PUSH   ACC

                     466             

21FF 7801            467                     MOV    R0,#01               

2201 7900            468             MOV    R1,#00

                     469             

2203 31D2            470                     CALL   GOTOXY

                     471             

2205 7910            472                     MOV    R1,#16               

                     473     

2207 7420            474     CLR2L1: MOV    A,#' '               

                     475             

2209 5116            476                     CALL   ESCDADO

                     477             

220B D9FA            478                     DJNZ   R1,CLR2L1

220D 7801            479             MOV    R0,#01               

220F 7900            480             MOV    R1,#00

                     481             

2211 31D2            482                     CALL   GOTOXY

                     483             

2213 D0E0            484                     POP    ACC

                     485             

2215 22              486                     RET

                     487                

                     488     

A51 MACRO ASSEMBLER  PROJETO_01_FECHADURA                                                 03/25/2017 10:04:16 PAGE     9

                     489     

                     490     

                     491     

                     492     

                     493     

                     494     

2216                 495     ESCDADO:  

2216 C2A6            496                     CLR             RW                               

2218 D2A5            497             SETB    RS               

221A D2A7            498             SETB    E_LCD            

                     499                     

221C F580            500             MOV     P0,A             

                     501             

221E C2A7            502                     CLR     E_LCD            

                     503                     

2220 7580FF          504                     MOV             P0,#0xFF                 

                     505                     

2223 D2A6            506                     SETB    RW                               

2225 C2A5            507                     CLR             RS                               

2227 D2A7            508                     SETB    E_LCD            

                     509     

2229 2087FD          510     ESCD1:  JB              BUSYF,ESCD1              

                     511     

222C C2A7            512                     CLR     E_LCD            

                     513     

222E 22              514             RET

                     515                     

                     516     

                     517     

                     518     

                     519     

                     520     

                     521     

                     522     

                     523     

                     524     

222F                 525     MSTRING:  

222F E4              526                       CLR    A

2230 93              527               MOVC   A,@A+DPTR       

                     528               

2231 6006            529                       JZ     MSTR1

                     530               

2233 122216          531                       LCALL  ESCDADO         

                     532               

2236 A3              533                       INC    DPTR

                     534               

2237 80F6            535                       SJMP   MSTRING

                     536                       

2239 22              537     MSTR1:    RET

                     538                

                     539     

                     540     

                     541     

                     542     

                     543     

                     544     

                     545     

                     546     

                     547     

223A                 548     MSTRINGX: 

223A E0              549                       MOVX   A,@DPTR         

                     550               

223B 6006            551                       JZ     MSTR21

                     552               

223D 122216          553                       LCALL  ESCDADO         

                     554               

A51 MACRO ASSEMBLER  PROJETO_01_FECHADURA                                                 03/25/2017 10:04:16 PAGE    10

2240 A3              555                       INC    DPTR

                     556               

2241 80F7            557                       SJMP   MSTRINGX

                     558     

2243 22              559     MSTR21:   RET

                     560     

                     561     

                     562     

                     563     

                     564     

                     565     

                     566     

                     567     

                     568     

                     569     

2244                 570     ESC_STR1: 

                     571                       

2244 7800            572                       MOV    R0,#00         

2246 7900            573               MOV    R1,#00

                     574               

2248 8004            575                       JMP    ESC_S

                     576               

                     577     

                     578     

                     579     

                     580     

                     581     

                     582     

                     583     

                     584     

                     585     

224A                 586     ESC_STR2: 

                     587                       

224A 7801            588                       MOV    R0,#01         

224C 7900            589               MOV    R1,#00

                     590                       

224E 1221D2          591     ESC_S:    LCALL  GOTOXY          

                     592               

2251 12222F          593                       LCALL  MSTRING

                     594               

2254 22              595                       RET

                     596     

                     597     

                     598     

                     599     

                     600     

                     601     

                     602     

                     603     ; DESTROI: R0,R2                                                                        //

                     604     

2255                 605     CUR_ON:   

2255 780F            606                       MOV    R0,#0FH               

2257 8002            607               SJMP   CUR1

                     608                       

2259                 609     CUR_OFF:  

2259 780C            610                       MOV    R0,#0CH               

                     611                       

225B 7A01            612     CUR1:     MOV    R2,#01

                     613               

225D 31BB            614                       CALL   ESCINST               

                     615               

225F 22              616                       RET

                     617                       

                     618     

                     619     

                     620     

A51 MACRO ASSEMBLER  PROJETO_01_FECHADURA                                                 03/25/2017 10:04:16 PAGE    11

                     621                       

2260                 622     TIMER_CONFIGURA_TIMER:

2260 758901          623                     MOV TMOD, #01h  

                     624             

2263 22              625                     RET

                     626             

                     627     

                     628     

                     629     

                     630     

                     631     

                     632     

                     633     

2264                 634     TIMER_DELAY_20_MS:

2264 758C2F          635                     MOV TH0, #HIGH(65535 - 53350)

2267 758A99          636                     MOV TL0, #LOW(65535 - 53350)

                     637             

226A C28D            638                     CLR TF0

226C D28C            639                     SETB TR0

                     640             

226E 308DFD          641                     JNB TF0, $

                     642                     

2271 C28D            643                     CLR TF0

2273 C28C            644                     CLR TR0

                     645             

2275 D8ED            646                     DJNZ R0, TIMER_DELAY_20_MS

                     647             

2277 22              648                     RET

                     649             

                     650     

                     651     

                     652     

                     653     

                     654     

                     655     

                     656     

2278                 657     TIMER_DELAY_1_S:

2278 7832            658                     MOV             R0, #50d

227A 5164            659                     CALL    TIMER_DELAY_20_MS

                     660                     

227C D9FA            661                     DJNZ    R1, TIMER_DELAY_1_S

                     662             

227E 22              663                     RET

                     664     

                     665     

                     666     

                     667     

                     668     

                     669     

                     670     

                     671     

227F                 672     INT_INT0:

227F 32              673                     RETI

                     674     

                     675     

                     676     

                     677     

2280                 678     INT_TIMER0:

2280 32              679                     RETI

                     680             

                     681     

                     682     

                     683     

2281                 684     INT_INT1:

2281 32              685                     RETI

                     686     

A51 MACRO ASSEMBLER  PROJETO_01_FECHADURA                                                 03/25/2017 10:04:16 PAGE    12

                     687     

                     688     

                     689     

2282                 690     INT_TIMER1:

2282 32              691                     RETI

                     692             

                     693     

                     694     

                     695     

2283                 696     INT_SERIAL:

2283 32              697                     RETI

                     698             

2284                 699     FIM:

                     700                     END

A51 MACRO ASSEMBLER  PROJETO_01_FECHADURA                                                 03/25/2017 10:04:16 PAGE    13

SYMBOL TABLE LISTING
------ ----- -------


N A M E                T Y P E  V A L U E   ATTRIBUTES

ACC . . . . . . . . .  D ADDR   00E0H   A   
BUSYF . . . . . . . .  B ADDR   0080H.7 A   
CLR1L . . . . . . . .  C ADDR   21E4H   A   
CLR1L1. . . . . . . .  C ADDR   21EEH   A   
CLR2L . . . . . . . .  C ADDR   21FDH   A   
CLR2L1. . . . . . . .  C ADDR   2207H   A   
COL1. . . . . . . . .  B ADDR   00B0H.0 A   
COL2. . . . . . . . .  B ADDR   00B0H.1 A   
COL3. . . . . . . . .  B ADDR   00B0H.2 A   
COL4. . . . . . . . .  B ADDR   00B0H.3 A   
CONV_ASCII_TO_NUMBER.  C ADDR   211FH   A   
COUNTER . . . . . . .  N NUMB   0037H   A   
CUR1. . . . . . . . .  C ADDR   225BH   A   
CUR_OFF . . . . . . .  C ADDR   2259H   A   
CUR_ON. . . . . . . .  C ADDR   2255H   A   
DIGITO0 . . . . . . .  C ADDR   2187H   A   
DIGITO1 . . . . . . .  C ADDR   2163H   A   
DIGITO2 . . . . . . .  C ADDR   2167H   A   
DIGITO3 . . . . . . .  C ADDR   216BH   A   
DIGITO4 . . . . . . .  C ADDR   216FH   A   
DIGITO5 . . . . . . .  C ADDR   2173H   A   
DIGITO6 . . . . . . .  C ADDR   2177H   A   
DIGITO7 . . . . . . .  C ADDR   217BH   A   
DIGITO8 . . . . . . .  C ADDR   217FH   A   
DIGITO9 . . . . . . .  C ADDR   2183H   A   
ESCD1 . . . . . . . .  C ADDR   2229H   A   
ESCDADO . . . . . . .  C ADDR   2216H   A   
ESCI1 . . . . . . . .  C ADDR   21CCH   A   
ESCINST . . . . . . .  C ADDR   21BBH   A   
ESCREVE_ASTERISCO . .  C ADDR   2124H   A   
ESC_S . . . . . . . .  C ADDR   224EH   A   
ESC_STR1. . . . . . .  C ADDR   2244H   A   
ESC_STR2. . . . . . .  C ADDR   224AH   A   
E_LCD . . . . . . . .  B ADDR   00A0H.7 A   
FIM . . . . . . . . .  C ADDR   2284H   A   
GOTOXY. . . . . . . .  C ADDR   21D2H   A   
GRAVA_DIGITO. . . . .  C ADDR   218BH   A   
GRAVA_TECLADO_2 . . .  C ADDR   2190H   A   
GRAVA_TECLADO_3 . . .  C ADDR   2195H   A   
GRAVA_TECLADO_4 . . .  C ADDR   219AH   A   
GT1 . . . . . . . . .  C ADDR   21DBH   A   
INIDISP . . . . . . .  C ADDR   219CH   A   
INT_INT0. . . . . . .  C ADDR   227FH   A   
INT_INT1. . . . . . .  C ADDR   2281H   A   
INT_SERIAL. . . . . .  C ADDR   2283H   A   
INT_TIMER0. . . . . .  C ADDR   2280H   A   
INT_TIMER1. . . . . .  C ADDR   2282H   A   
LED1. . . . . . . . .  B ADDR   00B0H.7 A   
LED_SEG . . . . . . .  B ADDR   00B0H.6 A   
LE_4_DIGITOS. . . . .  C ADDR   2104H   A   
LE_SENHA. . . . . . .  C ADDR   2112H   A   
LE_SENHA_ROM. . . . .  C ADDR   2118H   A   
LIN1. . . . . . . . .  B ADDR   00B0H.4 A   
LIN2. . . . . . . . .  B ADDR   00B0H.5 A   
LIN3. . . . . . . . .  B ADDR   00B0H.6 A   
LIN4. . . . . . . . .  B ADDR   00B0H.7 A   
MAIN. . . . . . . . .  C ADDR   20D4H   A   
MSTR1 . . . . . . . .  C ADDR   2239H   A   
MSTR21. . . . . . . .  C ADDR   2243H   A   
MSTRING . . . . . . .  C ADDR   222FH   A   
A51 MACRO ASSEMBLER  PROJETO_01_FECHADURA                                                 03/25/2017 10:04:16 PAGE    14

MSTRINGX. . . . . . .  C ADDR   223AH   A   
P0. . . . . . . . . .  D ADDR   0080H   A   
P2. . . . . . . . . .  D ADDR   00A0H   A   
P3. . . . . . . . . .  D ADDR   00B0H   A   
RS. . . . . . . . . .  B ADDR   00A0H.5 A   
RW. . . . . . . . . .  B ADDR   00A0H.6 A   
SENHA1_1. . . . . . .  N NUMB   0041H   A   
SENHA1_2. . . . . . .  N NUMB   0042H   A   
SENHA1_3. . . . . . .  N NUMB   0043H   A   
SENHA1_4. . . . . . .  N NUMB   0044H   A   
SENHA2_1. . . . . . .  N NUMB   0045H   A   
SENHA2_2. . . . . . .  N NUMB   0046H   A   
SENHA2_3. . . . . . .  N NUMB   0047H   A   
SENHA2_4. . . . . . .  N NUMB   0048H   A   
SENHA_PADRAO_1. . . .  C ADDR   2030H   A   
SENHA_PADRAO_2. . . .  C ADDR   2035H   A   
STR_ENTER . . . . . .  C ADDR   206DH   A   
STR_ERRO. . . . . . .  C ADDR   20A8H   A   
STR_LEONARDO_PEREIRA.  C ADDR   204BH   A   
STR_LIBERA. . . . . .  C ADDR   2086H   A   
STR_LOGO. . . . . . .  C ADDR   203AH   A   
STR_RODRIGO_ENDO. . .  C ADDR   205CH   A   
STR_SENHA . . . . . .  C ADDR   207EH   A   
STR_TRANCA. . . . . .  C ADDR   2097H   A   
TECLADO_1 . . . . . .  N NUMB   0031H   A   
TECLADO_2 . . . . . .  N NUMB   0032H   A   
TECLADO_3 . . . . . .  N NUMB   0033H   A   
TECLADO_4 . . . . . .  N NUMB   0034H   A   
TENTATIVAS. . . . . .  N NUMB   0049H   A   
TF0 . . . . . . . . .  B ADDR   0088H.5 A   
TH0 . . . . . . . . .  D ADDR   008CH   A   
TIMER_CONFIGURA_TIMER  C ADDR   2260H   A   
TIMER_DELAY_1_S . . .  C ADDR   2278H   A   
TIMER_DELAY_20_MS . .  C ADDR   2264H   A   
TL0 . . . . . . . . .  D ADDR   008AH   A   
TMOD. . . . . . . . .  D ADDR   0089H   A   
TR0 . . . . . . . . .  B ADDR   0088H.4 A   
VARREDURA_TECLADO . .  C ADDR   2129H   A   
__STARTUP__ . . . . .  C ADDR   20B9H   A   


REGISTER BANK(S) USED: 0 


ASSEMBLY COMPLETE.  0 WARNING(S), 0 ERROR(S)
